ARM GAS  C:\Users\marwa\AppData\Local\Temp\ccNqFJyR.s 			page 1


   1              		.cpu cortex-m4
   2              		.eabi_attribute 27, 1
   3              		.eabi_attribute 28, 1
   4              		.eabi_attribute 20, 1
   5              		.eabi_attribute 21, 1
   6              		.eabi_attribute 23, 3
   7              		.eabi_attribute 24, 1
   8              		.eabi_attribute 25, 1
   9              		.eabi_attribute 26, 1
  10              		.eabi_attribute 30, 2
  11              		.eabi_attribute 34, 1
  12              		.eabi_attribute 18, 4
  13              		.file	"Asercom2.c"
  14              		.text
  15              	.Ltext0:
  16              		.cfi_sections	.debug_frame
  17              		.section	.text.set_end_asercom2,"ax",%progbits
  18              		.align	1
  19              		.p2align 4,,15
  20              		.global	set_end_asercom2
  21              		.syntax unified
  22              		.thumb
  23              		.thumb_func
  24              		.fpu fpv4-sp-d16
  25              		.type	set_end_asercom2, %function
  26              	set_end_asercom2:
  27              	.LFB259:
  28              		.file 1 ".//src/epuck1x/Asercom2.c"
  29              		.loc 1 76 0
  30              		.cfi_startproc
  31              		@ args = 0, pretend = 0, frame = 8
  32              		@ frame_needed = 0, uses_anonymous_args = 0
  33              	.LVL0:
  34 0000 00B5     		push	{lr}
  35              		.cfi_def_cfa_offset 4
  36              		.cfi_offset 14, -4
  37 0002 074B     		ldr	r3, .L6
  38              		.loc 1 77 0
  39 0004 0749     		ldr	r1, .L6+4
  40              		.loc 1 76 0
  41 0006 1A68     		ldr	r2, [r3]
  42              		.loc 1 77 0
  43 0008 0870     		strb	r0, [r1]
  44              		.loc 1 76 0
  45 000a 83B0     		sub	sp, sp, #12
  46              		.cfi_def_cfa_offset 16
  47              		.loc 1 76 0
  48 000c 0192     		str	r2, [sp, #4]
  49              		.loc 1 79 0
  50 000e 019A     		ldr	r2, [sp, #4]
  51 0010 1B68     		ldr	r3, [r3]
  52 0012 9A42     		cmp	r2, r3
  53 0014 02D1     		bne	.L5
  54 0016 03B0     		add	sp, sp, #12
  55              		.cfi_remember_state
  56              		.cfi_def_cfa_offset 4
  57              		@ sp needed
ARM GAS  C:\Users\marwa\AppData\Local\Temp\ccNqFJyR.s 			page 2


  58 0018 5DF804FB 		ldr	pc, [sp], #4
  59              	.L5:
  60              		.cfi_restore_state
  61 001c FFF7FEFF 		bl	__stack_chk_fail
  62              	.LVL1:
  63              	.L7:
  64              		.align	2
  65              	.L6:
  66 0020 00000000 		.word	__stack_chk_guard
  67 0024 00000000 		.word	.LANCHOR0
  68              		.cfi_endproc
  69              	.LFE259:
  70              		.size	set_end_asercom2, .-set_end_asercom2
  71              		.section	.text.get_end_asercom2,"ax",%progbits
  72              		.align	1
  73              		.p2align 4,,15
  74              		.global	get_end_asercom2
  75              		.syntax unified
  76              		.thumb
  77              		.thumb_func
  78              		.fpu fpv4-sp-d16
  79              		.type	get_end_asercom2, %function
  80              	get_end_asercom2:
  81              	.LFB260:
  82              		.loc 1 81 0
  83              		.cfi_startproc
  84              		@ args = 0, pretend = 0, frame = 8
  85              		@ frame_needed = 0, uses_anonymous_args = 0
  86 0000 00B5     		push	{lr}
  87              		.cfi_def_cfa_offset 4
  88              		.cfi_offset 14, -4
  89 0002 074B     		ldr	r3, .L12
  90              		.loc 1 82 0
  91 0004 0749     		ldr	r1, .L12+4
  92              		.loc 1 81 0
  93 0006 1A68     		ldr	r2, [r3]
  94              		.loc 1 83 0
  95 0008 0878     		ldrb	r0, [r1]	@ zero_extendqisi2
  96              		.loc 1 81 0
  97 000a 83B0     		sub	sp, sp, #12
  98              		.cfi_def_cfa_offset 16
  99              		.loc 1 81 0
 100 000c 0192     		str	r2, [sp, #4]
 101              		.loc 1 83 0
 102 000e 019A     		ldr	r2, [sp, #4]
 103 0010 1B68     		ldr	r3, [r3]
 104 0012 9A42     		cmp	r2, r3
 105 0014 02D1     		bne	.L11
 106 0016 03B0     		add	sp, sp, #12
 107              		.cfi_remember_state
 108              		.cfi_def_cfa_offset 4
 109              		@ sp needed
 110 0018 5DF804FB 		ldr	pc, [sp], #4
 111              	.L11:
 112              		.cfi_restore_state
 113 001c FFF7FEFF 		bl	__stack_chk_fail
 114              	.LVL2:
ARM GAS  C:\Users\marwa\AppData\Local\Temp\ccNqFJyR.s 			page 3


 115              	.L13:
 116              		.align	2
 117              	.L12:
 118 0020 00000000 		.word	__stack_chk_guard
 119 0024 00000000 		.word	.LANCHOR0
 120              		.cfi_endproc
 121              	.LFE260:
 122              		.size	get_end_asercom2, .-get_end_asercom2
 123              		.section	.text.run_asercom2,"ax",%progbits
 124              		.align	1
 125              		.p2align 4,,15
 126              		.global	run_asercom2
 127              		.syntax unified
 128              		.thumb
 129              		.thumb_func
 130              		.fpu fpv4-sp-d16
 131              		.type	run_asercom2, %function
 132              	run_asercom2:
 133              	.LFB261:
 134              		.loc 1 115 0
 135              		.cfi_startproc
 136              		@ args = 0, pretend = 0, frame = 80
 137              		@ frame_needed = 0, uses_anonymous_args = 0
 138 0000 2DE9F04F 		push	{r4, r5, r6, r7, r8, r9, r10, fp, lr}
 139              		.cfi_def_cfa_offset 36
 140              		.cfi_offset 4, -36
 141              		.cfi_offset 5, -32
 142              		.cfi_offset 6, -28
 143              		.cfi_offset 7, -24
 144              		.cfi_offset 8, -20
 145              		.cfi_offset 9, -16
 146              		.cfi_offset 10, -12
 147              		.cfi_offset 11, -8
 148              		.cfi_offset 14, -4
 149 0004 2DED028B 		vpush.64	{d8}
 150              		.cfi_def_cfa_offset 44
 151              		.cfi_offset 80, -44
 152              		.cfi_offset 81, -40
 153 0008 964B     		ldr	r3, .L830
 154 000a 9BB0     		sub	sp, sp, #108
 155              		.cfi_def_cfa_offset 152
 156              		.loc 1 115 0
 157 000c 1B68     		ldr	r3, [r3]
 158 000e 1993     		str	r3, [sp, #100]
 159              	.LVL3:
 160              		.loc 1 134 0
 161 0010 0023     		movs	r3, #0
 162 0012 1793     		str	r3, [sp, #92]
 163 0014 CDE91433 		strd	r3, r3, [sp, #80]
 164 0018 1693     		str	r3, [sp, #88]
 165 001a CDF85F30 		str	r3, [sp, #95]	@ unaligned
 166              		.loc 1 138 0
 167 001e FFF7FEFF 		bl	e_init_motors
 168              	.LVL4:
 169              		.loc 1 142 0
 170 0022 FFF7FEFF 		bl	getselector
 171              	.LVL5:
ARM GAS  C:\Users\marwa\AppData\Local\Temp\ccNqFJyR.s 			page 4


 172 0026 904B     		ldr	r3, .L830+4
 173              		.loc 1 143 0
 174 0028 0328     		cmp	r0, #3
 175              		.loc 1 142 0
 176 002a 1860     		str	r0, [r3]
 177              		.loc 1 143 0
 178 002c 00F03783 		beq	.L478
 179              		.loc 1 143 0 is_stmt 0 discriminator 1
 180 0030 A0F10F08 		sub	r8, r0, #15
 181 0034 B8FA88F8 		clz	r8, r8
 182              		.loc 1 151 0 is_stmt 1 discriminator 1
 183 0038 0A28     		cmp	r0, #10
 184              		.loc 1 143 0 discriminator 1
 185 003a 4FEA5818 		lsr	r8, r8, #5
 186              	.LVL6:
 187              		.loc 1 151 0 discriminator 1
 188 003e 40F03083 		bne	.L15
 189              		.loc 1 168 0
 190 0042 FFF7FEFF 		bl	e_init_remote_control
 191              	.LVL7:
 192              		.loc 1 184 0
 193 0046 894B     		ldr	r3, .L830+8
 194              		.loc 1 179 0
 195 0048 894C     		ldr	r4, .L830+12
 196              		.loc 1 176 0
 197 004a 8A4A     		ldr	r2, .L830+16
 198              		.loc 1 181 0
 199 004c 8A4D     		ldr	r5, .L830+20
 200              		.loc 1 182 0
 201 004e 8B4E     		ldr	r6, .L830+24
 202              		.loc 1 183 0
 203 0050 8B4F     		ldr	r7, .L830+28
 204              		.loc 1 184 0
 205 0052 0893     		str	r3, [sp, #32]
 206              		.loc 1 176 0
 207 0054 4FF6FE71 		movw	r1, #65534
 208 0058 0123     		movs	r3, #1
 209 005a 7F20     		movs	r0, #127
 210              		.loc 1 179 0
 211 005c 0C94     		str	r4, [sp, #48]
 212              		.loc 1 181 0
 213 005e 0A95     		str	r5, [sp, #40]
 214              		.loc 1 182 0
 215 0060 0B96     		str	r6, [sp, #44]
 216              		.loc 1 183 0
 217 0062 0D97     		str	r7, [sp, #52]
 218              		.loc 1 176 0
 219 0064 FFF7FEFF 		bl	ReadEE
 220              	.LVL8:
 221              		.loc 1 183 0
 222 0068 0822     		movs	r2, #8
 223              		.loc 1 181 0
 224 006a 2823     		movs	r3, #40
 225              		.loc 1 183 0
 226 006c 3A60     		str	r2, [r7]
 227              		.loc 1 184 0
 228 006e 089A     		ldr	r2, [sp, #32]
ARM GAS  C:\Users\marwa\AppData\Local\Temp\ccNqFJyR.s 			page 5


 229              		.loc 1 181 0
 230 0070 2B60     		str	r3, [r5]
 231              		.loc 1 179 0
 232 0072 0120     		movs	r0, #1
 233              		.loc 1 182 0
 234 0074 3360     		str	r3, [r6]
 235              		.loc 1 184 0
 236 0076 4FF44863 		mov	r3, #3200
 237              		.loc 1 179 0
 238 007a 2060     		str	r0, [r4]
 239              		.loc 1 153 0
 240 007c 8346     		mov	fp, r0
 241              		.loc 1 184 0
 242 007e 1360     		str	r3, [r2]
 243              	.LVL9:
 244              	.L20:
 245              		.loc 1 157 0
 246 0080 0023     		movs	r3, #0
 247 0082 D946     		mov	r9, fp
 248 0084 0993     		str	r3, [sp, #36]
 249 0086 CDF81C80 		str	r8, [sp, #28]
 250 008a 9B46     		mov	fp, r3
 251              	.LVL10:
 252              	.L18:
 253              		.loc 1 217 0
 254 008c 7D4B     		ldr	r3, .L830+32
 255 008e 1B78     		ldrb	r3, [r3]	@ zero_extendqisi2
 256 0090 002B     		cmp	r3, #0
 257 0092 40F06382 		bne	.L23
 258              	.L799:
 259              		.loc 1 219 0
 260 0096 B9F1000F 		cmp	r9, #0
 261 009a 59D1     		bne	.L24
 262              		.loc 1 222 0
 263 009c 079B     		ldr	r3, [sp, #28]
 264              		.loc 1 224 0
 265 009e 7A4E     		ldr	r6, .L830+36
 266              		.loc 1 222 0
 267 00a0 63B3     		cbz	r3, .L26
 268              	.LVL11:
 269              	.L25:
 270              		.loc 1 224 0
 271 00a2 3046     		mov	r0, r6
 272 00a4 FFF7FEFF 		bl	e_getchar_uart1
 273              	.LVL12:
 274 00a8 0446     		mov	r4, r0
 275 00aa 0028     		cmp	r0, #0
 276 00ac 50D1     		bne	.L24
 277              		.loc 1 227 0
 278 00ae FFF7FEFF 		bl	e_get_data
 279              	.LVL13:
 280 00b2 0546     		mov	r5, r0
 281              	.LVL14:
 282              		.loc 1 228 0
 283 00b4 FFF7FEFF 		bl	e_get_address
 284              	.LVL15:
 285              		.loc 1 229 0
ARM GAS  C:\Users\marwa\AppData\Local\Temp\ccNqFJyR.s 			page 6


 286 00b8 10F0F70F 		tst	r0, #247
 287 00bc F1D1     		bne	.L25
 288              		.loc 1 229 0 is_stmt 0 discriminator 3
 289 00be AB45     		cmp	fp, r5
 290 00c0 EFD0     		beq	.L25
 291              		.loc 1 231 0 is_stmt 1
 292 00c2 092D     		cmp	r5, #9
 293 00c4 01F21281 		bhi	.L28
 294 00c8 DFE815F0 		tbh	[pc, r5, lsl #1]
 295              	.L30:
 296 00cc E303     		.2byte	(.L29-.L30)/2
 297 00ce DA03     		.2byte	(.L31-.L30)/2
 298 00d0 D303     		.2byte	(.L32-.L30)/2
 299 00d2 CA03     		.2byte	(.L33-.L30)/2
 300 00d4 9A03     		.2byte	(.L34-.L30)/2
 301 00d6 9403     		.2byte	(.L35-.L30)/2
 302 00d8 8C03     		.2byte	(.L36-.L30)/2
 303 00da 8503     		.2byte	(.L37-.L30)/2
 304 00dc 7E03     		.2byte	(.L38-.L30)/2
 305 00de 6F03     		.2byte	(.L39-.L30)/2
 306              		.p2align 1
 307              	.L55:
 308              		.loc 1 333 0
 309 00e0 6A4A     		ldr	r2, .L830+40
 310 00e2 6B4F     		ldr	r7, .L830+44
 311              		.loc 1 334 0
 312 00e4 6B4B     		ldr	r3, .L830+48
 313              		.loc 1 333 0
 314 00e6 3A60     		str	r2, [r7]
 315              		.loc 1 334 0
 316 00e8 1244     		add	r2, r2, r2
 317 00ea 1A60     		str	r2, [r3]
 318              		.loc 1 335 0
 319 00ec 1446     		mov	r4, r2
 320              	.LVL16:
 321              	.L56:
 322              		.loc 1 348 0
 323 00ee 2046     		mov	r0, r4
 324 00f0 FFF7FEFF 		bl	e_set_speed_left
 325              	.LVL17:
 326              		.loc 1 349 0
 327 00f4 3868     		ldr	r0, [r7]
 328 00f6 FFF7FEFF 		bl	e_set_speed_right
 329              	.LVL18:
 330 00fa AB46     		mov	fp, r5
 331              	.LVL19:
 332              	.L26:
 333              		.loc 1 291 0
 334 00fc 3046     		mov	r0, r6
 335 00fe FFF7FEFF 		bl	e_getchar_uart2
 336              	.LVL20:
 337 0102 0446     		mov	r4, r0
 338 0104 20BB     		cbnz	r0, .L24
 339              		.loc 1 294 0
 340 0106 FFF7FEFF 		bl	e_get_data
 341              	.LVL21:
 342 010a 0546     		mov	r5, r0
ARM GAS  C:\Users\marwa\AppData\Local\Temp\ccNqFJyR.s 			page 7


 343              	.LVL22:
 344              		.loc 1 295 0
 345 010c FFF7FEFF 		bl	e_get_address
 346              	.LVL23:
 347              		.loc 1 296 0
 348 0110 10F0F70F 		tst	r0, #247
 349 0114 F2D1     		bne	.L26
 350              		.loc 1 296 0 is_stmt 0 discriminator 3
 351 0116 AB45     		cmp	fp, r5
 352 0118 F0D0     		beq	.L26
 353              		.loc 1 298 0 is_stmt 1
 354 011a 092D     		cmp	r5, #9
 355 011c 01F2ED80 		bhi	.L44
 356 0120 01A3     		adr	r3, .L46
 357 0122 53F825F0 		ldr	pc, [r3, r5, lsl #2]
 358 0126 00BF     		.p2align 2
 359              	.L46:
 360 0128 8D070000 		.word	.L45+1
 361 012c 7B070000 		.word	.L47+1
 362 0130 6D070000 		.word	.L48+1
 363 0134 5B070000 		.word	.L49+1
 364 0138 47070000 		.word	.L50+1
 365 013c 3B070000 		.word	.L51+1
 366 0140 2B070000 		.word	.L52+1
 367 0144 1D070000 		.word	.L53+1
 368 0148 0F070000 		.word	.L54+1
 369 014c E1000000 		.word	.L55+1
 370              	.LVL24:
 371              		.p2align 1
 372              	.L24:
 373              		.loc 1 357 0
 374 0150 4D4F     		ldr	r7, .L830+36
 375 0152 3B78     		ldrb	r3, [r7]	@ zero_extendqisi2
 376 0154 1A06     		lsls	r2, r3, #24
 377 0156 00F1A580 		bmi	.L785
 378              		.loc 1 1338 0
 379 015a 002B     		cmp	r3, #0
 380 015c 96D0     		beq	.L18
 381              		.loc 1 1340 0
 382 015e B9F1000F 		cmp	r9, #0
 383 0162 40F08582 		bne	.L234
 384              		.loc 1 1343 0
 385 0166 079A     		ldr	r2, [sp, #28]
 386              		.loc 1 1346 0
 387 0168 3C46     		mov	r4, r7
 388              		.loc 1 1343 0
 389 016a 002A     		cmp	r2, #0
 390 016c 5AD0     		beq	.L236
 391 016e 03E0     		b	.L235
 392              	.L237:
 393              		.loc 1 1346 0
 394 0170 2046     		mov	r0, r4
 395 0172 FFF7FEFF 		bl	e_getchar_uart1
 396              	.LVL25:
 397 0176 3B78     		ldrb	r3, [r7]	@ zero_extendqisi2
 398              	.L235:
 399              		.loc 1 1345 0
ARM GAS  C:\Users\marwa\AppData\Local\Temp\ccNqFJyR.s 			page 8


 400 0178 0A2B     		cmp	r3, #10
 401 017a F9D0     		beq	.L237
 402              		.loc 1 1345 0 is_stmt 0 discriminator 1
 403 017c 0D2B     		cmp	r3, #13
 404 017e F7D0     		beq	.L237
 405              		.loc 1 1353 0 is_stmt 1
 406 0180 454D     		ldr	r5, .L830+52
 407              		.loc 1 1354 0
 408 0182 DFF81CA1 		ldr	r10, .L830+60
 409              		.loc 1 1353 0
 410 0186 2B70     		strb	r3, [r5]
 411              		.loc 1 1354 0
 412 0188 0123     		movs	r3, #1
 413 018a CAF80030 		str	r3, [r10]
 414              		.loc 1 1361 0
 415 018e 3E4C     		ldr	r4, .L830+36
 416 0190 04E0     		b	.L245
 417              	.L786:
 418 0192 3B78     		ldrb	r3, [r7]	@ zero_extendqisi2
 419              		.loc 1 1363 0
 420 0194 0A2B     		cmp	r3, #10
 421 0196 10D0     		beq	.L251
 422              	.L243:
 423              		.loc 1 1363 0 is_stmt 0 discriminator 1
 424 0198 0D2B     		cmp	r3, #13
 425 019a 0ED0     		beq	.L251
 426              	.L245:
 427              		.loc 1 1361 0 is_stmt 1
 428 019c 2046     		mov	r0, r4
 429 019e FFF7FEFF 		bl	e_getchar_uart1
 430              	.LVL26:
 431 01a2 0028     		cmp	r0, #0
 432 01a4 F5D0     		beq	.L786
 433              		.loc 1 1362 0
 434 01a6 DAF80020 		ldr	r2, [r10]
 435 01aa 3B78     		ldrb	r3, [r7]	@ zero_extendqisi2
 436 01ac AB54     		strb	r3, [r5, r2]
 437              		.loc 1 1363 0
 438 01ae 0A2B     		cmp	r3, #10
 439              		.loc 1 1362 0
 440 01b0 02F10102 		add	r2, r2, #1
 441 01b4 CAF80020 		str	r2, [r10]
 442              		.loc 1 1363 0
 443 01b8 EED1     		bne	.L243
 444              	.L251:
 445 01ba DAF80030 		ldr	r3, [r10]
 446              		.loc 1 1372 0
 447 01be 0022     		movs	r2, #0
 448 01c0 EA54     		strb	r2, [r5, r3]
 449              		.loc 1 1374 0
 450 01c2 2C78     		ldrb	r4, [r5]	@ zero_extendqisi2
 451 01c4 591C     		adds	r1, r3, #1
 452 01c6 622C     		cmp	r4, #98
 453              		.loc 1 1372 0
 454 01c8 CAF80010 		str	r1, [r10]
 455              		.loc 1 1374 0
 456 01cc 02F00781 		beq	.L787
ARM GAS  C:\Users\marwa\AppData\Local\Temp\ccNqFJyR.s 			page 9


 457              	.L473:
 458              		.loc 1 1374 0 is_stmt 0 discriminator 1
 459 01d0 672C     		cmp	r4, #103
 460 01d2 40F0D081 		bne	.L788
 461              	.L252:
 462              	.LBB2:
 463              		.loc 1 1507 0 is_stmt 1
 464 01d6 B9F1000F 		cmp	r9, #0
 465 01da 42F0A180 		bne	.L308
 466              		.loc 1 1509 0
 467 01de FFF7FEFF 		bl	getXAxisGyro
 468              	.LVL27:
 469 01e2 0446     		mov	r4, r0
 470 01e4 FFF7FEFF 		bl	getYAxisGyro
 471              	.LVL28:
 472 01e8 0546     		mov	r5, r0
 473 01ea FFF7FEFF 		bl	getZAxisGyro
 474              	.LVL29:
 475 01ee 2B46     		mov	r3, r5
 476 01f0 0090     		str	r0, [sp]
 477 01f2 2246     		mov	r2, r4
 478 01f4 2949     		ldr	r1, .L830+56
 479 01f6 2848     		ldr	r0, .L830+52
 480 01f8 FFF7FEFF 		bl	sprintf
 481              	.LVL30:
 482              		.loc 1 1518 0
 483 01fc 079B     		ldr	r3, [sp, #28]
 484 01fe 002B     		cmp	r3, #0
 485 0200 02F07581 		beq	.L789
 486              		.loc 1 1520 0
 487 0204 2448     		ldr	r0, .L830+52
 488 0206 FFF7FEFF 		bl	strlen
 489              	.LVL31:
 490 020a 0146     		mov	r1, r0
 491 020c 2248     		ldr	r0, .L830+52
 492 020e FFF7FEFF 		bl	e_send_uart1_char
 493              	.LVL32:
 494              	.L311:
 495              		.loc 1 1520 0 is_stmt 0 discriminator 2
 496 0212 FFF7FEFF 		bl	e_uart1_sending
 497              	.LVL33:
 498 0216 0028     		cmp	r0, #0
 499 0218 FBD1     		bne	.L311
 500 021a 37E7     		b	.L18
 501              	.L239:
 502              	.LBE2:
 503              		.loc 1 1351 0 is_stmt 1
 504 021c 2046     		mov	r0, r4
 505 021e FFF7FEFF 		bl	e_getchar_uart2
 506              	.LVL34:
 507 0222 3B78     		ldrb	r3, [r7]	@ zero_extendqisi2
 508              	.L236:
 509              		.loc 1 1350 0
 510 0224 0A2B     		cmp	r3, #10
 511 0226 F9D0     		beq	.L239
 512              		.loc 1 1350 0 is_stmt 0 discriminator 1
 513 0228 0D2B     		cmp	r3, #13
ARM GAS  C:\Users\marwa\AppData\Local\Temp\ccNqFJyR.s 			page 10


 514 022a F7D0     		beq	.L239
 515              		.loc 1 1353 0 is_stmt 1
 516 022c 1A4D     		ldr	r5, .L830+52
 517              		.loc 1 1354 0
 518 022e DFF870A0 		ldr	r10, .L830+60
 519              		.loc 1 1353 0
 520 0232 2B70     		strb	r3, [r5]
 521              		.loc 1 1354 0
 522 0234 0123     		movs	r3, #1
 523 0236 CAF80030 		str	r3, [r10]
 524              		.loc 1 1368 0
 525 023a 134C     		ldr	r4, .L830+36
 526 023c 04E0     		b	.L250
 527              	.L790:
 528 023e 3B78     		ldrb	r3, [r7]	@ zero_extendqisi2
 529              	.L248:
 530              		.loc 1 1370 0
 531 0240 0A2B     		cmp	r3, #10
 532 0242 BAD0     		beq	.L251
 533              		.loc 1 1370 0 is_stmt 0 discriminator 1
 534 0244 0D2B     		cmp	r3, #13
 535 0246 B8D0     		beq	.L251
 536              	.L250:
 537              		.loc 1 1368 0 is_stmt 1
 538 0248 2046     		mov	r0, r4
 539 024a FFF7FEFF 		bl	e_getchar_uart2
 540              	.LVL35:
 541 024e 0028     		cmp	r0, #0
 542 0250 F5D0     		beq	.L790
 543              		.loc 1 1369 0
 544 0252 DAF80020 		ldr	r2, [r10]
 545 0256 3B78     		ldrb	r3, [r7]	@ zero_extendqisi2
 546 0258 AB54     		strb	r3, [r5, r2]
 547 025a 0132     		adds	r2, r2, #1
 548 025c CAF80020 		str	r2, [r10]
 549 0260 EEE7     		b	.L248
 550              	.L831:
 551 0262 00BF     		.align	2
 552              	.L830:
 553 0264 00000000 		.word	__stack_chk_guard
 554 0268 00000000 		.word	selector
 555 026c 00000000 		.word	.LANCHOR6
 556 0270 00000000 		.word	.LANCHOR2
 557 0274 00000000 		.word	.LANCHOR1
 558 0278 00000000 		.word	.LANCHOR3
 559 027c 00000000 		.word	.LANCHOR4
 560 0280 00000000 		.word	.LANCHOR5
 561 0284 00000000 		.word	.LANCHOR0
 562 0288 00000000 		.word	c
 563 028c D4FEFFFF 		.word	-300
 564 0290 00000000 		.word	.LANCHOR7
 565 0294 00000000 		.word	.LANCHOR8
 566 0298 00000000 		.word	buffer
 567 029c F8000000 		.word	.LC13
 568 02a0 00000000 		.word	.LANCHOR10
 569              	.L785:
 570              		.loc 1 359 0
ARM GAS  C:\Users\marwa\AppData\Local\Temp\ccNqFJyR.s 			page 11


 571 02a4 DFF874A2 		ldr	r10, .L832+16
 572              		.loc 1 928 0
 573 02a8 9FED988A 		vldr.32	s16, .L832
 574              		.loc 1 359 0
 575 02ac 0022     		movs	r2, #0
 576 02ae 5B42     		negs	r3, r3
 577 02b0 CAF80020 		str	r2, [r10]
 578              		.loc 1 1299 0
 579 02b4 B846     		mov	r8, r7
 580              	.LVL36:
 581              	.L60:
 582              		.loc 1 362 0
 583 02b6 DAB2     		uxtb	r2, r3
 584 02b8 083A     		subs	r2, r2, #8
 585 02ba 6F2A     		cmp	r2, #111
 586 02bc 00F20C81 		bhi	.L61
 587 02c0 DFE812F0 		tbh	[pc, r2, lsl #1]
 588              	.L63:
 589 02c4 C403     		.2byte	(.L62-.L63)/2
 590 02c6 A603     		.2byte	(.L64-.L63)/2
 591 02c8 3405     		.2byte	(.L65-.L63)/2
 592 02ca 6903     		.2byte	(.L66-.L63)/2
 593 02cc 8203     		.2byte	(.L67-.L63)/2
 594 02ce 7303     		.2byte	(.L68-.L63)/2
 595 02d0 5C03     		.2byte	(.L69-.L63)/2
 596 02d2 3C03     		.2byte	(.L70-.L63)/2
 597 02d4 8106     		.2byte	(.L71-.L63)/2
 598 02d6 6906     		.2byte	(.L72-.L63)/2
 599 02d8 0A01     		.2byte	(.L61-.L63)/2
 600 02da 0A01     		.2byte	(.L61-.L63)/2
 601 02dc 0A01     		.2byte	(.L61-.L63)/2
 602 02de 0A01     		.2byte	(.L61-.L63)/2
 603 02e0 0A01     		.2byte	(.L61-.L63)/2
 604 02e2 0A01     		.2byte	(.L61-.L63)/2
 605 02e4 0A01     		.2byte	(.L61-.L63)/2
 606 02e6 0A01     		.2byte	(.L61-.L63)/2
 607 02e8 0A01     		.2byte	(.L61-.L63)/2
 608 02ea 0A01     		.2byte	(.L61-.L63)/2
 609 02ec 0A01     		.2byte	(.L61-.L63)/2
 610 02ee 0A01     		.2byte	(.L61-.L63)/2
 611 02f0 0A01     		.2byte	(.L61-.L63)/2
 612 02f2 0A01     		.2byte	(.L61-.L63)/2
 613 02f4 0A01     		.2byte	(.L61-.L63)/2
 614 02f6 0A01     		.2byte	(.L61-.L63)/2
 615 02f8 0A01     		.2byte	(.L61-.L63)/2
 616 02fa 0A01     		.2byte	(.L61-.L63)/2
 617 02fc 0A01     		.2byte	(.L61-.L63)/2
 618 02fe 0A01     		.2byte	(.L61-.L63)/2
 619 0300 0A01     		.2byte	(.L61-.L63)/2
 620 0302 0A01     		.2byte	(.L61-.L63)/2
 621 0304 0A01     		.2byte	(.L61-.L63)/2
 622 0306 0A01     		.2byte	(.L61-.L63)/2
 623 0308 0A01     		.2byte	(.L61-.L63)/2
 624 030a 0A01     		.2byte	(.L61-.L63)/2
 625 030c 0A01     		.2byte	(.L61-.L63)/2
 626 030e 0A01     		.2byte	(.L61-.L63)/2
 627 0310 0A01     		.2byte	(.L61-.L63)/2
ARM GAS  C:\Users\marwa\AppData\Local\Temp\ccNqFJyR.s 			page 12


 628 0312 0A01     		.2byte	(.L61-.L63)/2
 629 0314 0A01     		.2byte	(.L61-.L63)/2
 630 0316 0A01     		.2byte	(.L61-.L63)/2
 631 0318 0A01     		.2byte	(.L61-.L63)/2
 632 031a 0A01     		.2byte	(.L61-.L63)/2
 633 031c 0A01     		.2byte	(.L61-.L63)/2
 634 031e 0A01     		.2byte	(.L61-.L63)/2
 635 0320 0A01     		.2byte	(.L61-.L63)/2
 636 0322 0A01     		.2byte	(.L61-.L63)/2
 637 0324 0A01     		.2byte	(.L61-.L63)/2
 638 0326 0A01     		.2byte	(.L61-.L63)/2
 639 0328 0A01     		.2byte	(.L61-.L63)/2
 640 032a 0A01     		.2byte	(.L61-.L63)/2
 641 032c 0A01     		.2byte	(.L61-.L63)/2
 642 032e 0A01     		.2byte	(.L61-.L63)/2
 643 0330 0A01     		.2byte	(.L61-.L63)/2
 644 0332 0A01     		.2byte	(.L61-.L63)/2
 645 0334 0A01     		.2byte	(.L61-.L63)/2
 646 0336 2F06     		.2byte	(.L73-.L63)/2
 647 0338 0A01     		.2byte	(.L61-.L63)/2
 648 033a 0A01     		.2byte	(.L61-.L63)/2
 649 033c 1F06     		.2byte	(.L74-.L63)/2
 650 033e 0C06     		.2byte	(.L75-.L63)/2
 651 0340 0A01     		.2byte	(.L61-.L63)/2
 652 0342 0A01     		.2byte	(.L61-.L63)/2
 653 0344 0A01     		.2byte	(.L61-.L63)/2
 654 0346 DE05     		.2byte	(.L76-.L63)/2
 655 0348 0A01     		.2byte	(.L61-.L63)/2
 656 034a 0A01     		.2byte	(.L61-.L63)/2
 657 034c BD05     		.2byte	(.L77-.L63)/2
 658 034e 9005     		.2byte	(.L78-.L63)/2
 659 0350 4807     		.2byte	(.L79-.L63)/2
 660 0352 3207     		.2byte	(.L80-.L63)/2
 661 0354 5E07     		.2byte	(.L81-.L63)/2
 662 0356 9706     		.2byte	(.L82-.L63)/2
 663 0358 0A01     		.2byte	(.L61-.L63)/2
 664 035a 0A01     		.2byte	(.L61-.L63)/2
 665 035c 0A01     		.2byte	(.L61-.L63)/2
 666 035e 0A01     		.2byte	(.L61-.L63)/2
 667 0360 0A01     		.2byte	(.L61-.L63)/2
 668 0362 D006     		.2byte	(.L83-.L63)/2
 669 0364 0A01     		.2byte	(.L61-.L63)/2
 670 0366 A606     		.2byte	(.L84-.L63)/2
 671 0368 0A01     		.2byte	(.L61-.L63)/2
 672 036a 0A01     		.2byte	(.L61-.L63)/2
 673 036c 0A01     		.2byte	(.L61-.L63)/2
 674 036e 0A01     		.2byte	(.L61-.L63)/2
 675 0370 0A01     		.2byte	(.L61-.L63)/2
 676 0372 0A01     		.2byte	(.L61-.L63)/2
 677 0374 0A01     		.2byte	(.L61-.L63)/2
 678 0376 1007     		.2byte	(.L85-.L63)/2
 679 0378 8205     		.2byte	(.L86-.L63)/2
 680 037a 0A01     		.2byte	(.L61-.L63)/2
 681 037c 0A01     		.2byte	(.L61-.L63)/2
 682 037e 0A01     		.2byte	(.L61-.L63)/2
 683 0380 0A01     		.2byte	(.L61-.L63)/2
 684 0382 2903     		.2byte	(.L87-.L63)/2
ARM GAS  C:\Users\marwa\AppData\Local\Temp\ccNqFJyR.s 			page 13


 685 0384 0A01     		.2byte	(.L61-.L63)/2
 686 0386 0A01     		.2byte	(.L61-.L63)/2
 687 0388 0A01     		.2byte	(.L61-.L63)/2
 688 038a 0A01     		.2byte	(.L61-.L63)/2
 689 038c 0A01     		.2byte	(.L61-.L63)/2
 690 038e 0A01     		.2byte	(.L61-.L63)/2
 691 0390 0A01     		.2byte	(.L61-.L63)/2
 692 0392 0A01     		.2byte	(.L61-.L63)/2
 693 0394 0A01     		.2byte	(.L61-.L63)/2
 694 0396 0A01     		.2byte	(.L61-.L63)/2
 695 0398 0A01     		.2byte	(.L61-.L63)/2
 696 039a 0A01     		.2byte	(.L61-.L63)/2
 697 039c 1C03     		.2byte	(.L88-.L63)/2
 698 039e F602     		.2byte	(.L89-.L63)/2
 699 03a0 0A01     		.2byte	(.L61-.L63)/2
 700 03a2 9C07     		.2byte	(.L90-.L63)/2
 701              		.p2align 1
 702              	.L109:
 703              		.loc 1 572 0
 704 03a4 5A48     		ldr	r0, .L832+4
 705 03a6 D0F85432 		ldr	r3, [r0, #596]
 706 03aa 1B68     		ldr	r3, [r3]
 707 03ac 1B78     		ldrb	r3, [r3]	@ zero_extendqisi2
 708 03ae 042B     		cmp	r3, #4
 709 03b0 04D1     		bne	.L110
 710              		.loc 1 574 0
 711 03b2 0368     		ldr	r3, [r0]
 712 03b4 1322     		movs	r2, #19
 713 03b6 5B68     		ldr	r3, [r3, #4]
 714 03b8 14A9     		add	r1, sp, #80
 715 03ba 9847     		blx	r3
 716              	.LVL37:
 717              	.L110:
 718              		.loc 1 577 0
 719 03bc 0A20     		movs	r0, #10
 720 03be FFF7FEFF 		bl	chThdSleep
 721              	.LVL38:
 722              	.L108:
 723              		.loc 1 581 0
 724 03c2 FFF7FEFF 		bl	serial_get_last_errors
 725              	.LVL39:
 726 03c6 0028     		cmp	r0, #0
 727 03c8 40F00F86 		bne	.L144
 728              	.L111:
 729              		.loc 1 594 0
 730 03cc 9DF85030 		ldrb	r3, [sp, #80]	@ zero_extendqisi2
 731 03d0 9E07     		lsls	r6, r3, #30
 732 03d2 41F1A187 		bpl	.L791
 733              	.L112:
 734              		.loc 1 604 0
 735 03d6 9DF85220 		ldrb	r2, [sp, #82]	@ zero_extendqisi2
 736 03da 9DF85130 		ldrb	r3, [sp, #81]	@ zero_extendqisi2
 737              		.loc 1 605 0
 738 03de 9DF85400 		ldrb	r0, [sp, #84]	@ zero_extendqisi2
 739 03e2 9DF85310 		ldrb	r1, [sp, #83]	@ zero_extendqisi2
 740              		.loc 1 604 0
 741 03e6 03EB0223 		add	r3, r3, r2, lsl #8
ARM GAS  C:\Users\marwa\AppData\Local\Temp\ccNqFJyR.s 			page 14


 742 03ea 4A4A     		ldr	r2, .L832+8
 743 03ec 1360     		str	r3, [r2]
 744              		.loc 1 605 0
 745 03ee 4A4A     		ldr	r2, .L832+12
 746              		.loc 1 619 0
 747 03f0 9DF85530 		ldrb	r3, [sp, #85]	@ zero_extendqisi2
 748              		.loc 1 605 0
 749 03f4 01EB0021 		add	r1, r1, r0, lsl #8
 750 03f8 1160     		str	r1, [r2]
 751              		.loc 1 619 0
 752 03fa 13F00101 		ands	r1, r3, #1
 753              		.loc 1 621 0
 754 03fe 16BF     		itet	ne
 755 0400 0020     		movne	r0, #0
 756              		.loc 1 625 0
 757 0402 0846     		moveq	r0, r1
 758              		.loc 1 621 0
 759 0404 0121     		movne	r1, #1
 760              		.loc 1 625 0
 761 0406 FFF7FEFF 		bl	set_led
 762              	.LVL40:
 763              		.loc 1 627 0
 764 040a 9DF85530 		ldrb	r3, [sp, #85]	@ zero_extendqisi2
 765 040e 13F00201 		ands	r1, r3, #2
 766              		.loc 1 629 0
 767 0412 1ABF     		itte	ne
 768 0414 0121     		movne	r1, #1
 769 0416 0846     		movne	r0, r1
 770              		.loc 1 633 0
 771 0418 0120     		moveq	r0, #1
 772 041a FFF7FEFF 		bl	set_led
 773              	.LVL41:
 774              		.loc 1 635 0
 775 041e 9DF85530 		ldrb	r3, [sp, #85]	@ zero_extendqisi2
 776 0422 13F00401 		ands	r1, r3, #4
 777              		.loc 1 637 0
 778 0426 18BF     		it	ne
 779 0428 0121     		movne	r1, #1
 780              		.loc 1 641 0
 781 042a 0220     		movs	r0, #2
 782 042c FFF7FEFF 		bl	set_led
 783              	.LVL42:
 784              		.loc 1 643 0
 785 0430 9DF85530 		ldrb	r3, [sp, #85]	@ zero_extendqisi2
 786 0434 13F00801 		ands	r1, r3, #8
 787              		.loc 1 645 0
 788 0438 18BF     		it	ne
 789 043a 0121     		movne	r1, #1
 790              		.loc 1 649 0
 791 043c 0320     		movs	r0, #3
 792 043e FFF7FEFF 		bl	set_led
 793              	.LVL43:
 794              		.loc 1 651 0
 795 0442 9DF85530 		ldrb	r3, [sp, #85]	@ zero_extendqisi2
 796 0446 13F01000 		ands	r0, r3, #16
 797              		.loc 1 653 0
 798 044a 18BF     		it	ne
ARM GAS  C:\Users\marwa\AppData\Local\Temp\ccNqFJyR.s 			page 15


 799 044c 0120     		movne	r0, #1
 800              		.loc 1 657 0
 801 044e FFF7FEFF 		bl	set_body_led
 802              	.LVL44:
 803              		.loc 1 659 0
 804 0452 9DF85530 		ldrb	r3, [sp, #85]	@ zero_extendqisi2
 805 0456 13F02000 		ands	r0, r3, #32
 806              		.loc 1 661 0
 807 045a 18BF     		it	ne
 808 045c 0120     		movne	r0, #1
 809              		.loc 1 665 0
 810 045e FFF7FEFF 		bl	set_front_led
 811              	.LVL45:
 812              		.loc 1 669 0
 813 0462 9DF85830 		ldrb	r3, [sp, #88]	@ zero_extendqisi2
 814 0466 9DF85720 		ldrb	r2, [sp, #87]	@ zero_extendqisi2
 815 046a 9DF85610 		ldrb	r1, [sp, #86]	@ zero_extendqisi2
 816 046e 0020     		movs	r0, #0
 817 0470 FFF7FEFF 		bl	set_rgb_led
 818              	.LVL46:
 819              		.loc 1 670 0
 820 0474 9DF85B30 		ldrb	r3, [sp, #91]	@ zero_extendqisi2
 821 0478 9DF85A20 		ldrb	r2, [sp, #90]	@ zero_extendqisi2
 822 047c 9DF85910 		ldrb	r1, [sp, #89]	@ zero_extendqisi2
 823 0480 0120     		movs	r0, #1
 824 0482 FFF7FEFF 		bl	set_rgb_led
 825              	.LVL47:
 826              		.loc 1 671 0
 827 0486 9DF85E30 		ldrb	r3, [sp, #94]	@ zero_extendqisi2
 828 048a 9DF85D20 		ldrb	r2, [sp, #93]	@ zero_extendqisi2
 829 048e 9DF85C10 		ldrb	r1, [sp, #92]	@ zero_extendqisi2
 830 0492 0220     		movs	r0, #2
 831 0494 FFF7FEFF 		bl	set_rgb_led
 832              	.LVL48:
 833              		.loc 1 672 0
 834 0498 9DF86130 		ldrb	r3, [sp, #97]	@ zero_extendqisi2
 835 049c 9DF86020 		ldrb	r2, [sp, #96]	@ zero_extendqisi2
 836 04a0 9DF85F10 		ldrb	r1, [sp, #95]	@ zero_extendqisi2
 837 04a4 0320     		movs	r0, #3
 838 04a6 FFF7FEFF 		bl	set_rgb_led
 839              	.LVL49:
 840              		.loc 1 675 0
 841 04aa 9DF86230 		ldrb	r3, [sp, #98]	@ zero_extendqisi2
 842 04ae DD07     		lsls	r5, r3, #31
 843 04b0 01F12887 		bmi	.L792
 844              	.L125:
 845              		.loc 1 681 0
 846 04b4 9C07     		lsls	r4, r3, #30
 847 04b6 01F11C87 		bmi	.L793
 848              	.L126:
 849              		.loc 1 685 0
 850 04ba 5807     		lsls	r0, r3, #29
 851 04bc 01F11087 		bmi	.L794
 852              	.L127:
 853              		.loc 1 689 0
 854 04c0 1907     		lsls	r1, r3, #28
 855 04c2 01F10387 		bmi	.L795
ARM GAS  C:\Users\marwa\AppData\Local\Temp\ccNqFJyR.s 			page 16


 856              	.L128:
 857              		.loc 1 693 0
 858 04c6 DA06     		lsls	r2, r3, #27
 859 04c8 01F1F686 		bmi	.L796
 860              	.L129:
 861              		.loc 1 697 0
 862 04cc 9B06     		lsls	r3, r3, #26
 863 04ce 03D5     		bpl	.L61
 864              		.loc 1 699 0
 865 04d0 FFF7FEFF 		bl	e_close_sound
 866              	.LVL50:
 867              		.loc 1 700 0
 868 04d4 FFF7FEFF 		bl	stopCurrentMelody
 869              	.LVL51:
 870              	.L61:
 871              		.loc 1 1294 0
 872 04d8 B9F1000F 		cmp	r9, #0
 873 04dc 06D1     		bne	.L783
 874              	.L138:
 875              		.loc 1 1297 0
 876 04de 079B     		ldr	r3, [sp, #28]
 877 04e0 43B1     		cbz	r3, .L228
 878              	.L229:
 879              		.loc 1 1299 0 discriminator 1
 880 04e2 4046     		mov	r0, r8
 881 04e4 FFF7FEFF 		bl	e_getchar_uart1
 882              	.LVL52:
 883 04e8 0028     		cmp	r0, #0
 884 04ea FAD0     		beq	.L229
 885              	.L783:
 886 04ec 3B78     		ldrb	r3, [r7]	@ zero_extendqisi2
 887              	.L203:
 888              		.loc 1 1307 0
 889 04ee BBB1     		cbz	r3, .L755
 890 04f0 5B42     		negs	r3, r3
 891 04f2 E0E6     		b	.L60
 892              	.L228:
 893              		.loc 1 1304 0 discriminator 1
 894 04f4 4046     		mov	r0, r8
 895 04f6 FFF7FEFF 		bl	e_getchar_uart2
 896              	.LVL53:
 897 04fa 0028     		cmp	r0, #0
 898 04fc F6D1     		bne	.L783
 899              		.loc 1 1304 0 is_stmt 0
 900 04fe 4046     		mov	r0, r8
 901 0500 FFF7FEFF 		bl	e_getchar_uart2
 902              	.LVL54:
 903 0504 0028     		cmp	r0, #0
 904 0506 F5D0     		beq	.L228
 905 0508 F0E7     		b	.L783
 906              	.L833:
 907 050a 00BF     		.align	2
 908              	.L832:
 909 050c 00000000 		.word	0
 910 0510 00000000 		.word	SDU1
 911 0514 00000000 		.word	.LANCHOR8
 912 0518 00000000 		.word	.LANCHOR7
ARM GAS  C:\Users\marwa\AppData\Local\Temp\ccNqFJyR.s 			page 17


 913 051c 00000000 		.word	.LANCHOR10
 914              	.L755:
 915              		.loc 1 1308 0 is_stmt 1
 916 0520 DAF80010 		ldr	r1, [r10]
 917 0524 0029     		cmp	r1, #0
 918 0526 3FF4B1AD 		beq	.L18
 919              		.loc 1 1310 0
 920 052a B9F1000F 		cmp	r9, #0
 921 052e 7FF4ADAD 		bne	.L18
 922              		.loc 1 1312 0
 923 0532 B84B     		ldr	r3, .L834
 924 0534 1A78     		ldrb	r2, [r3]	@ zero_extendqisi2
 925 0536 002A     		cmp	r2, #0
 926 0538 41F01886 		bne	.L797
 927              	.L231:
 928              		.loc 1 1323 0
 929 053c 079B     		ldr	r3, [sp, #28]
 930 053e 002B     		cmp	r3, #0
 931 0540 00F0E286 		beq	.L798
 932              		.loc 1 1325 0
 933 0544 B448     		ldr	r0, .L834+4
 934 0546 FFF7FEFF 		bl	e_send_uart1_char
 935              	.LVL55:
 936              	.L232:
 937              		.loc 1 1326 0 discriminator 1
 938 054a FFF7FEFF 		bl	e_uart1_sending
 939              	.LVL56:
 940 054e 0028     		cmp	r0, #0
 941 0550 FBD1     		bne	.L232
 942              	.LVL57:
 943              		.loc 1 217 0
 944 0552 B24B     		ldr	r3, .L834+8
 945 0554 1B78     		ldrb	r3, [r3]	@ zero_extendqisi2
 946 0556 002B     		cmp	r3, #0
 947 0558 3FF49DAD 		beq	.L799
 948              	.L23:
 949              		.loc 1 2080 0
 950 055c B04B     		ldr	r3, .L834+12
 951 055e 199A     		ldr	r2, [sp, #100]
 952 0560 1B68     		ldr	r3, [r3]
 953 0562 9A42     		cmp	r2, r3
 954 0564 4FF00000 		mov	r0, #0
 955 0568 42F03C82 		bne	.L800
 956 056c 1BB0     		add	sp, sp, #108
 957              		.cfi_remember_state
 958              		.cfi_def_cfa_offset 44
 959              		@ sp needed
 960 056e BDEC028B 		vldm	sp!, {d8}
 961              		.cfi_restore 80
 962              		.cfi_restore 81
 963              		.cfi_def_cfa_offset 36
 964 0572 BDE8F08F 		pop	{r4, r5, r6, r7, r8, r9, r10, fp, pc}
 965              	.LVL58:
 966              	.L788:
 967              		.cfi_restore_state
 968              	.LBB3:
 969              		.loc 1 1376 0
ARM GAS  C:\Users\marwa\AppData\Local\Temp\ccNqFJyR.s 			page 18


 970 0576 FFF7FEFF 		bl	__locale_ctype_ptr
 971              	.LVL59:
 972 057a 2044     		add	r0, r0, r4
 973 057c 2346     		mov	r3, r4
 974 057e 4278     		ldrb	r2, [r0, #1]	@ zero_extendqisi2
 975 0580 02F00302 		and	r2, r2, #3
 976 0584 022A     		cmp	r2, #2
 977 0586 08BF     		it	eq
 978 0588 A4F12003 		subeq	r3, r4, #32
 979              	.LBE3:
 980 058c DBB2     		uxtb	r3, r3
 981              		.loc 1 1378 0
 982 058e A3F14102 		sub	r2, r3, #65
 983              		.loc 1 1376 0
 984 0592 2B70     		strb	r3, [r5]
 985              		.loc 1 1378 0
 986 0594 332A     		cmp	r2, #51
 987 0596 01F2CB85 		bhi	.L254
 988 059a 01A3     		adr	r3, .L256
 989 059c 53F822F0 		ldr	pc, [r3, r2, lsl #2]
 990              		.p2align 2
 991              	.L256:
 992 05a0 4B190000 		.word	.L255+1
 993 05a4 9F190000 		.word	.L257+1
 994 05a8 3D1A0000 		.word	.L258+1
 995 05ac 9D1A0000 		.word	.L259+1
 996 05b0 DD1A0000 		.word	.L260+1
 997 05b4 171B0000 		.word	.L261+1
 998 05b8 4D1B0000 		.word	.L262+1
 999 05bc CD1B0000 		.word	.L263+1
 1000 05c0 9F1D0000 		.word	.L264+1
 1001 05c4 5D1E0000 		.word	.L265+1
 1002 05c8 391F0000 		.word	.L266+1
 1003 05cc 8B1F0000 		.word	.L267+1
 1004 05d0 C71F0000 		.word	.L268+1
 1005 05d4 29200000 		.word	.L269+1
 1006 05d8 AD200000 		.word	.L270+1
 1007 05dc 09170000 		.word	.L271+1
 1008 05e0 49170000 		.word	.L272+1
 1009 05e4 8D000000 		.word	.L18+1
 1010 05e8 89170000 		.word	.L273+1
 1011 05ec C1170000 		.word	.L274+1
 1012 05f0 F3170000 		.word	.L275+1
 1013 05f4 05190000 		.word	.L276+1
 1014 05f8 41180000 		.word	.L277+1
 1015 05fc 31210000 		.word	.L254+1
 1016 0600 8B180000 		.word	.L278+1
 1017 0604 27160000 		.word	.L279+1
 1018 0608 31210000 		.word	.L254+1
 1019 060c 31210000 		.word	.L254+1
 1020 0610 31210000 		.word	.L254+1
 1021 0614 31210000 		.word	.L254+1
 1022 0618 31210000 		.word	.L254+1
 1023 061c 31210000 		.word	.L254+1
 1024 0620 31210000 		.word	.L254+1
 1025 0624 E9290000 		.word	.L280+1
 1026 0628 31210000 		.word	.L254+1
ARM GAS  C:\Users\marwa\AppData\Local\Temp\ccNqFJyR.s 			page 19


 1027 062c 31210000 		.word	.L254+1
 1028 0630 31210000 		.word	.L254+1
 1029 0634 31210000 		.word	.L254+1
 1030 0638 D7010000 		.word	.L252+1
 1031 063c 31210000 		.word	.L254+1
 1032 0640 31210000 		.word	.L254+1
 1033 0644 31210000 		.word	.L254+1
 1034 0648 31210000 		.word	.L254+1
 1035 064c 31210000 		.word	.L254+1
 1036 0650 31210000 		.word	.L254+1
 1037 0654 31210000 		.word	.L254+1
 1038 0658 31210000 		.word	.L254+1
 1039 065c 31210000 		.word	.L254+1
 1040 0660 31210000 		.word	.L254+1
 1041 0664 31210000 		.word	.L254+1
 1042 0668 31210000 		.word	.L254+1
 1043 066c 8F160000 		.word	.L281+1
 1044              	.LVL60:
 1045              		.p2align 1
 1046              	.L234:
 1047              		.loc 1 1353 0
 1048 0670 694D     		ldr	r5, .L834+4
 1049              		.loc 1 1372 0
 1050 0672 6C4A     		ldr	r2, .L834+16
 1051              		.loc 1 1353 0
 1052 0674 2B70     		strb	r3, [r5]
 1053              		.loc 1 1374 0
 1054 0676 1C46     		mov	r4, r3
 1055              		.loc 1 1372 0
 1056 0678 0021     		movs	r1, #0
 1057 067a 0223     		movs	r3, #2
 1058              		.loc 1 1374 0
 1059 067c 622C     		cmp	r4, #98
 1060              		.loc 1 1372 0
 1061 067e 6970     		strb	r1, [r5, #1]
 1062 0680 1360     		str	r3, [r2]
 1063              		.loc 1 1374 0
 1064 0682 7FF4A5AD 		bne	.L473
 1065              	.LBB4:
 1066              		.loc 1 1402 0
 1067 0686 FFF7FEFF 		bl	getBatteryValueRaw
 1068              	.LVL61:
 1069 068a 0446     		mov	r4, r0
 1070 068c FFF7FEFF 		bl	getBatteryValuePercentage
 1071              	.LVL62:
 1072 0690 2246     		mov	r2, r4
 1073 0692 0346     		mov	r3, r0
 1074 0694 6449     		ldr	r1, .L834+20
 1075 0696 2846     		mov	r0, r5
 1076 0698 FFF7FEFF 		bl	sprintf
 1077              	.LVL63:
 1078 069c F6E4     		b	.L18
 1079              	.LVL64:
 1080              	.L478:
 1081              	.LBE4:
 1082              		.loc 1 145 0
 1083 069e 4FF00108 		mov	r8, #1
ARM GAS  C:\Users\marwa\AppData\Local\Temp\ccNqFJyR.s 			page 20


 1084              	.LVL65:
 1085              	.L15:
 1086              		.loc 1 163 0
 1087 06a2 FFF7FEFF 		bl	e_i2cp_init
 1088              	.LVL66:
 1089              		.loc 1 179 0
 1090 06a6 614C     		ldr	r4, .L834+24
 1091              		.loc 1 181 0
 1092 06a8 614E     		ldr	r6, .L834+28
 1093              		.loc 1 182 0
 1094 06aa 624F     		ldr	r7, .L834+32
 1095              		.loc 1 168 0
 1096 06ac FFF7FEFF 		bl	e_init_remote_control
 1097              	.LVL67:
 1098              		.loc 1 176 0
 1099 06b0 0123     		movs	r3, #1
 1100 06b2 614A     		ldr	r2, .L834+36
 1101              		.loc 1 179 0
 1102 06b4 0C94     		str	r4, [sp, #48]
 1103              		.loc 1 176 0
 1104 06b6 4FF6FE71 		movw	r1, #65534
 1105 06ba 7F20     		movs	r0, #127
 1106              		.loc 1 181 0
 1107 06bc 0A96     		str	r6, [sp, #40]
 1108              		.loc 1 182 0
 1109 06be 0B97     		str	r7, [sp, #44]
 1110              		.loc 1 176 0
 1111 06c0 FFF7FEFF 		bl	ReadEE
 1112              	.LVL68:
 1113              		.loc 1 184 0
 1114 06c4 5D4B     		ldr	r3, .L834+40
 1115              		.loc 1 186 0
 1116 06c6 5E4A     		ldr	r2, .L834+44
 1117              		.loc 1 184 0
 1118 06c8 0893     		str	r3, [sp, #32]
 1119              		.loc 1 179 0
 1120 06ca 0123     		movs	r3, #1
 1121              		.loc 1 183 0
 1122 06cc 5D48     		ldr	r0, .L834+48
 1123              		.loc 1 186 0
 1124 06ce 1268     		ldr	r2, [r2]
 1125              		.loc 1 179 0
 1126 06d0 2360     		str	r3, [r4]
 1127              		.loc 1 181 0
 1128 06d2 2823     		movs	r3, #40
 1129 06d4 3360     		str	r3, [r6]
 1130              		.loc 1 182 0
 1131 06d6 3B60     		str	r3, [r7]
 1132              		.loc 1 184 0
 1133 06d8 5849     		ldr	r1, .L834+40
 1134              		.loc 1 183 0
 1135 06da 0D90     		str	r0, [sp, #52]
 1136 06dc 0823     		movs	r3, #8
 1137 06de 0360     		str	r3, [r0]
 1138              		.loc 1 186 0
 1139 06e0 0F2A     		cmp	r2, #15
 1140              		.loc 1 184 0
ARM GAS  C:\Users\marwa\AppData\Local\Temp\ccNqFJyR.s 			page 21


 1141 06e2 4FF44863 		mov	r3, #3200
 1142              		.loc 1 183 0
 1143 06e6 0546     		mov	r5, r0
 1144              		.loc 1 184 0
 1145 06e8 0B60     		str	r3, [r1]
 1146              		.loc 1 186 0
 1147 06ea 40F06785 		bne	.L801
 1148              		.loc 1 200 0
 1149 06ee B8F1000F 		cmp	r8, #0
 1150 06f2 00F05585 		beq	.L802
 1151              	.L469:
 1152              		.loc 1 202 0
 1153 06f6 FFF7FEFF 		bl	e_acc_calibr
 1154              	.LVL69:
 1155              		.loc 1 203 0
 1156 06fa 5821     		movs	r1, #88
 1157 06fc 5248     		ldr	r0, .L834+52
 1158 06fe FFF7FEFF 		bl	e_send_uart1_char
 1159              	.LVL70:
 1160              	.L19:
 1161              		.loc 1 203 0 is_stmt 0 discriminator 2
 1162 0702 FFF7FEFF 		bl	e_uart1_sending
 1163              	.LVL71:
 1164 0706 0028     		cmp	r0, #0
 1165 0708 FBD1     		bne	.L19
 1166              		.loc 1 157 0 is_stmt 1
 1167 070a 8346     		mov	fp, r0
 1168 070c B8E4     		b	.L20
 1169              	.LVL72:
 1170              	.L54:
 1171              		.loc 1 329 0
 1172 070e 4F4A     		ldr	r2, .L834+56
 1173 0710 4F4F     		ldr	r7, .L834+60
 1174              		.loc 1 330 0
 1175 0712 504B     		ldr	r3, .L834+64
 1176              		.loc 1 329 0
 1177 0714 3A60     		str	r2, [r7]
 1178              		.loc 1 330 0
 1179 0716 1A60     		str	r2, [r3]
 1180              		.loc 1 331 0
 1181 0718 1446     		mov	r4, r2
 1182 071a E8E4     		b	.L56
 1183              	.L53:
 1184              		.loc 1 325 0
 1185 071c 4C4F     		ldr	r7, .L834+60
 1186              		.loc 1 326 0
 1187 071e 4D4B     		ldr	r3, .L834+64
 1188 0720 4D4C     		ldr	r4, .L834+68
 1189              		.loc 1 325 0
 1190 0722 4A4A     		ldr	r2, .L834+56
 1191 0724 3A60     		str	r2, [r7]
 1192              		.loc 1 326 0
 1193 0726 1C60     		str	r4, [r3]
 1194              		.loc 1 327 0
 1195 0728 E1E4     		b	.L56
 1196              	.L52:
 1197              		.loc 1 321 0
ARM GAS  C:\Users\marwa\AppData\Local\Temp\ccNqFJyR.s 			page 22


 1198 072a 494F     		ldr	r7, .L834+60
 1199              		.loc 1 322 0
 1200 072c 494B     		ldr	r3, .L834+64
 1201              		.loc 1 321 0
 1202 072e 474A     		ldr	r2, .L834+56
 1203 0730 3A60     		str	r2, [r7]
 1204              		.loc 1 322 0
 1205 0732 4FF41674 		mov	r4, #600
 1206 0736 1C60     		str	r4, [r3]
 1207              		.loc 1 323 0
 1208 0738 D9E4     		b	.L56
 1209              	.L51:
 1210              		.loc 1 317 0
 1211 073a 454F     		ldr	r7, .L834+60
 1212              		.loc 1 318 0
 1213 073c 454A     		ldr	r2, .L834+64
 1214              		.loc 1 317 0
 1215 073e 0023     		movs	r3, #0
 1216 0740 3B60     		str	r3, [r7]
 1217              		.loc 1 318 0
 1218 0742 1360     		str	r3, [r2]
 1219              		.loc 1 319 0
 1220 0744 D3E4     		b	.L56
 1221              	.L50:
 1222              		.loc 1 313 0
 1223 0746 424F     		ldr	r7, .L834+60
 1224              		.loc 1 314 0
 1225 0748 424B     		ldr	r3, .L834+64
 1226              		.loc 1 313 0
 1227 074a 4FF41672 		mov	r2, #600
 1228 074e 3A60     		str	r2, [r7]
 1229              		.loc 1 314 0
 1230 0750 A2F59662 		sub	r2, r2, #1200
 1231 0754 1A60     		str	r2, [r3]
 1232              		.loc 1 315 0
 1233 0756 1446     		mov	r4, r2
 1234 0758 C9E4     		b	.L56
 1235              	.L49:
 1236              		.loc 1 309 0
 1237 075a 3D4F     		ldr	r7, .L834+60
 1238              		.loc 1 310 0
 1239 075c 3D4B     		ldr	r3, .L834+64
 1240              		.loc 1 309 0
 1241 075e 4FF49672 		mov	r2, #300
 1242              		.loc 1 310 0
 1243 0762 4FF41674 		mov	r4, #600
 1244              		.loc 1 309 0
 1245 0766 3A60     		str	r2, [r7]
 1246              		.loc 1 310 0
 1247 0768 1C60     		str	r4, [r3]
 1248              		.loc 1 311 0
 1249 076a C0E4     		b	.L56
 1250              	.L48:
 1251              		.loc 1 305 0
 1252 076c 384F     		ldr	r7, .L834+60
 1253              		.loc 1 306 0
 1254 076e 394B     		ldr	r3, .L834+64
ARM GAS  C:\Users\marwa\AppData\Local\Temp\ccNqFJyR.s 			page 23


 1255              		.loc 1 305 0
 1256 0770 4FF41674 		mov	r4, #600
 1257 0774 3C60     		str	r4, [r7]
 1258              		.loc 1 306 0
 1259 0776 1C60     		str	r4, [r3]
 1260              		.loc 1 307 0
 1261 0778 B9E4     		b	.L56
 1262              	.L47:
 1263              		.loc 1 301 0
 1264 077a 354F     		ldr	r7, .L834+60
 1265              		.loc 1 302 0
 1266 077c 354B     		ldr	r3, .L834+64
 1267              		.loc 1 301 0
 1268 077e 4FF41672 		mov	r2, #600
 1269              		.loc 1 302 0
 1270 0782 4FF49674 		mov	r4, #300
 1271              		.loc 1 301 0
 1272 0786 3A60     		str	r2, [r7]
 1273              		.loc 1 302 0
 1274 0788 1C60     		str	r4, [r3]
 1275              		.loc 1 303 0
 1276 078a B0E4     		b	.L56
 1277              	.L45:
 1278              		.loc 1 337 0
 1279 078c 334C     		ldr	r4, .L834+72
 1280 078e 2378     		ldrb	r3, [r4]	@ zero_extendqisi2
 1281 0790 002B     		cmp	r3, #0
 1282 0792 01F0E584 		beq	.L803
 1283              	.LVL73:
 1284              	.L57:
 1285              		.loc 1 342 0
 1286 0796 41F65071 		movw	r1, #8016
 1287 079a 42F61430 		movw	r0, #11028
 1288 079e FFF7FEFF 		bl	e_play_sound
 1289              	.LVL74:
 1290 07a2 2C4B     		ldr	r3, .L834+64
 1291 07a4 2A4F     		ldr	r7, .L834+60
 1292 07a6 1C68     		ldr	r4, [r3]
 1293              		.loc 1 343 0
 1294 07a8 A1E4     		b	.L56
 1295              	.LVL75:
 1296              	.L39:
 1297              		.loc 1 266 0
 1298 07aa 2B4A     		ldr	r2, .L834+68
 1299 07ac 284F     		ldr	r7, .L834+60
 1300              		.loc 1 267 0
 1301 07ae 294B     		ldr	r3, .L834+64
 1302              		.loc 1 266 0
 1303 07b0 3A60     		str	r2, [r7]
 1304              		.loc 1 267 0
 1305 07b2 1244     		add	r2, r2, r2
 1306 07b4 1A60     		str	r2, [r3]
 1307              		.loc 1 268 0
 1308 07b6 1446     		mov	r4, r2
 1309              	.LVL76:
 1310              	.L40:
 1311              		.loc 1 281 0
ARM GAS  C:\Users\marwa\AppData\Local\Temp\ccNqFJyR.s 			page 24


 1312 07b8 2046     		mov	r0, r4
 1313 07ba FFF7FEFF 		bl	e_set_speed_left
 1314              	.LVL77:
 1315              		.loc 1 282 0
 1316 07be 3868     		ldr	r0, [r7]
 1317 07c0 FFF7FEFF 		bl	e_set_speed_right
 1318              	.LVL78:
 1319 07c4 AB46     		mov	fp, r5
 1320 07c6 6CE4     		b	.L25
 1321              	.LVL79:
 1322              	.L38:
 1323              		.loc 1 262 0
 1324 07c8 204A     		ldr	r2, .L834+56
 1325 07ca 214F     		ldr	r7, .L834+60
 1326              		.loc 1 263 0
 1327 07cc 214B     		ldr	r3, .L834+64
 1328              		.loc 1 262 0
 1329 07ce 3A60     		str	r2, [r7]
 1330              		.loc 1 263 0
 1331 07d0 1A60     		str	r2, [r3]
 1332              		.loc 1 264 0
 1333 07d2 1446     		mov	r4, r2
 1334 07d4 F0E7     		b	.L40
 1335              	.L37:
 1336              		.loc 1 258 0
 1337 07d6 1E4F     		ldr	r7, .L834+60
 1338              		.loc 1 259 0
 1339 07d8 1E4B     		ldr	r3, .L834+64
 1340 07da 1F4C     		ldr	r4, .L834+68
 1341              		.loc 1 258 0
 1342 07dc 1B4A     		ldr	r2, .L834+56
 1343 07de 3A60     		str	r2, [r7]
 1344              		.loc 1 259 0
 1345 07e0 1C60     		str	r4, [r3]
 1346              		.loc 1 260 0
 1347 07e2 E9E7     		b	.L40
 1348              	.L36:
 1349              		.loc 1 254 0
 1350 07e4 1A4F     		ldr	r7, .L834+60
 1351              		.loc 1 255 0
 1352 07e6 1B4B     		ldr	r3, .L834+64
 1353              		.loc 1 254 0
 1354 07e8 184A     		ldr	r2, .L834+56
 1355 07ea 3A60     		str	r2, [r7]
 1356              		.loc 1 255 0
 1357 07ec 4FF41674 		mov	r4, #600
 1358 07f0 1C60     		str	r4, [r3]
 1359              		.loc 1 256 0
 1360 07f2 E1E7     		b	.L40
 1361              	.L35:
 1362              		.loc 1 250 0
 1363 07f4 164F     		ldr	r7, .L834+60
 1364              		.loc 1 251 0
 1365 07f6 174A     		ldr	r2, .L834+64
 1366              		.loc 1 250 0
 1367 07f8 0023     		movs	r3, #0
 1368 07fa 3B60     		str	r3, [r7]
ARM GAS  C:\Users\marwa\AppData\Local\Temp\ccNqFJyR.s 			page 25


 1369              		.loc 1 251 0
 1370 07fc 1360     		str	r3, [r2]
 1371              		.loc 1 252 0
 1372 07fe DBE7     		b	.L40
 1373              	.L34:
 1374              		.loc 1 246 0
 1375 0800 134F     		ldr	r7, .L834+60
 1376              		.loc 1 247 0
 1377 0802 144B     		ldr	r3, .L834+64
 1378              		.loc 1 246 0
 1379 0804 4FF41672 		mov	r2, #600
 1380 0808 3A60     		str	r2, [r7]
 1381              		.loc 1 247 0
 1382 080a A2F59662 		sub	r2, r2, #1200
 1383 080e 1A60     		str	r2, [r3]
 1384              		.loc 1 248 0
 1385 0810 1446     		mov	r4, r2
 1386 0812 D1E7     		b	.L40
 1387              	.L835:
 1388              		.align	2
 1389              	.L834:
 1390 0814 00000000 		.word	.LANCHOR22
 1391 0818 00000000 		.word	buffer
 1392 081c 00000000 		.word	.LANCHOR0
 1393 0820 00000000 		.word	__stack_chk_guard
 1394 0824 00000000 		.word	.LANCHOR10
 1395 0828 78000000 		.word	.LC3
 1396 082c 00000000 		.word	.LANCHOR2
 1397 0830 00000000 		.word	.LANCHOR3
 1398 0834 00000000 		.word	.LANCHOR4
 1399 0838 00000000 		.word	.LANCHOR1
 1400 083c 00000000 		.word	.LANCHOR6
 1401 0840 00000000 		.word	selector
 1402 0844 00000000 		.word	.LANCHOR5
 1403 0848 00000000 		.word	.LC0
 1404 084c A8FDFFFF 		.word	-600
 1405 0850 00000000 		.word	.LANCHOR7
 1406 0854 00000000 		.word	.LANCHOR8
 1407 0858 D4FEFFFF 		.word	-300
 1408 085c 00000000 		.word	.LANCHOR9
 1409              	.L33:
 1410              		.loc 1 242 0
 1411 0860 754F     		ldr	r7, .L836
 1412              		.loc 1 243 0
 1413 0862 764B     		ldr	r3, .L836+4
 1414              		.loc 1 242 0
 1415 0864 4FF49672 		mov	r2, #300
 1416              		.loc 1 243 0
 1417 0868 4FF41674 		mov	r4, #600
 1418              		.loc 1 242 0
 1419 086c 3A60     		str	r2, [r7]
 1420              		.loc 1 243 0
 1421 086e 1C60     		str	r4, [r3]
 1422              		.loc 1 244 0
 1423 0870 A2E7     		b	.L40
 1424              	.L32:
 1425              		.loc 1 238 0
ARM GAS  C:\Users\marwa\AppData\Local\Temp\ccNqFJyR.s 			page 26


 1426 0872 714F     		ldr	r7, .L836
 1427              		.loc 1 239 0
 1428 0874 714B     		ldr	r3, .L836+4
 1429              		.loc 1 238 0
 1430 0876 4FF41674 		mov	r4, #600
 1431 087a 3C60     		str	r4, [r7]
 1432              		.loc 1 239 0
 1433 087c 1C60     		str	r4, [r3]
 1434              		.loc 1 240 0
 1435 087e 9BE7     		b	.L40
 1436              	.L31:
 1437              		.loc 1 234 0
 1438 0880 6D4F     		ldr	r7, .L836
 1439              		.loc 1 235 0
 1440 0882 6E4B     		ldr	r3, .L836+4
 1441              		.loc 1 234 0
 1442 0884 4FF41672 		mov	r2, #600
 1443              		.loc 1 235 0
 1444 0888 4FF49674 		mov	r4, #300
 1445              		.loc 1 234 0
 1446 088c 3A60     		str	r2, [r7]
 1447              		.loc 1 235 0
 1448 088e 1C60     		str	r4, [r3]
 1449              		.loc 1 236 0
 1450 0890 92E7     		b	.L40
 1451              	.L29:
 1452              		.loc 1 270 0
 1453 0892 6B4C     		ldr	r4, .L836+8
 1454 0894 2378     		ldrb	r3, [r4]	@ zero_extendqisi2
 1455 0896 002B     		cmp	r3, #0
 1456 0898 01F05C84 		beq	.L804
 1457              	.LVL80:
 1458              	.L41:
 1459              		.loc 1 275 0
 1460 089c 41F65071 		movw	r1, #8016
 1461 08a0 42F61430 		movw	r0, #11028
 1462 08a4 FFF7FEFF 		bl	e_play_sound
 1463              	.LVL81:
 1464 08a8 644B     		ldr	r3, .L836+4
 1465 08aa 634F     		ldr	r7, .L836
 1466 08ac 1C68     		ldr	r4, [r3]
 1467              		.loc 1 276 0
 1468 08ae 83E7     		b	.L40
 1469              	.LVL82:
 1470              	.L89:
 1471              		.loc 1 1183 0
 1472 08b0 0020     		movs	r0, #0
 1473 08b2 FFF7FEFF 		bl	e_get_micro_volume
 1474              	.LVL83:
 1475              		.loc 1 1184 0
 1476 08b6 634C     		ldr	r4, .L836+12
 1477 08b8 DAF80030 		ldr	r3, [r10]
 1478              		.loc 1 1185 0
 1479 08bc E218     		adds	r2, r4, r3
 1480 08be 0112     		asrs	r1, r0, #8
 1481              		.loc 1 1184 0
 1482 08c0 E054     		strb	r0, [r4, r3]
ARM GAS  C:\Users\marwa\AppData\Local\Temp\ccNqFJyR.s 			page 27


 1483              		.loc 1 1185 0
 1484 08c2 0233     		adds	r3, r3, #2
 1485              		.loc 1 1187 0
 1486 08c4 0120     		movs	r0, #1
 1487              		.loc 1 1185 0
 1488 08c6 5170     		strb	r1, [r2, #1]
 1489 08c8 CAF80030 		str	r3, [r10]
 1490              		.loc 1 1187 0
 1491 08cc FFF7FEFF 		bl	e_get_micro_volume
 1492              	.LVL84:
 1493              		.loc 1 1188 0
 1494 08d0 DAF80030 		ldr	r3, [r10]
 1495              		.loc 1 1189 0
 1496 08d4 0112     		asrs	r1, r0, #8
 1497              		.loc 1 1188 0
 1498 08d6 E054     		strb	r0, [r4, r3]
 1499              		.loc 1 1189 0
 1500 08d8 E218     		adds	r2, r4, r3
 1501              		.loc 1 1191 0
 1502 08da 0220     		movs	r0, #2
 1503              		.loc 1 1189 0
 1504 08dc 0233     		adds	r3, r3, #2
 1505              	.L781:
 1506 08de 5170     		strb	r1, [r2, #1]
 1507 08e0 CAF80030 		str	r3, [r10]
 1508              		.loc 1 1191 0
 1509 08e4 FFF7FEFF 		bl	e_get_micro_volume
 1510              	.LVL85:
 1511              	.L782:
 1512              		.loc 1 1192 0
 1513 08e8 DAF80030 		ldr	r3, [r10]
 1514              		.loc 1 1193 0
 1515 08ec E218     		adds	r2, r4, r3
 1516              		.loc 1 1192 0
 1517 08ee E054     		strb	r0, [r4, r3]
 1518              		.loc 1 1193 0
 1519 08f0 991C     		adds	r1, r3, #2
 1520 08f2 0012     		asrs	r0, r0, #8
 1521 08f4 CAF80010 		str	r1, [r10]
 1522 08f8 5070     		strb	r0, [r2, #1]
 1523              		.loc 1 1194 0
 1524 08fa EDE5     		b	.L61
 1525              	.L88:
 1526              		.loc 1 1172 0
 1527 08fc B9F1000F 		cmp	r9, #0
 1528 0900 40F01B86 		bne	.L202
 1529              		.loc 1 1174 0
 1530 0904 DAF80030 		ldr	r3, [r10]
 1531 0908 4E4C     		ldr	r4, .L836+12
 1532 090a 5A1C     		adds	r2, r3, #1
 1533 090c 04F80390 		strb	r9, [r4, r3]
 1534 0910 CAF80020 		str	r2, [r10]
 1535 0914 E3E5     		b	.L138
 1536              	.L87:
 1537              		.loc 1 1015 0
 1538 0916 B9F1000F 		cmp	r9, #0
 1539 091a 00F0F185 		beq	.L805
ARM GAS  C:\Users\marwa\AppData\Local\Temp\ccNqFJyR.s 			page 28


 1540              		.loc 1 1027 0
 1541 091e DAF80000 		ldr	r0, [r10]
 1542 0922 484C     		ldr	r4, .L836+12
 1543              		.loc 1 1028 0
 1544 0924 2118     		adds	r1, r4, r0
 1545              		.loc 1 1027 0
 1546 0926 0022     		movs	r2, #0
 1547              		.loc 1 1032 0
 1548 0928 851D     		adds	r5, r0, #6
 1549              		.loc 1 1027 0
 1550 092a 2254     		strb	r2, [r4, r0]
 1551              		.loc 1 1032 0
 1552 092c CAF80050 		str	r5, [r10]
 1553              		.loc 1 1028 0
 1554 0930 4A70     		strb	r2, [r1, #1]
 1555              		.loc 1 1029 0
 1556 0932 8A70     		strb	r2, [r1, #2]
 1557              		.loc 1 1030 0
 1558 0934 CA70     		strb	r2, [r1, #3]
 1559              		.loc 1 1031 0
 1560 0936 0A71     		strb	r2, [r1, #4]
 1561              		.loc 1 1032 0
 1562 0938 4A71     		strb	r2, [r1, #5]
 1563 093a BCE4     		b	.L60
 1564              	.L70:
 1565              		.loc 1 777 0
 1566 093c B9F1000F 		cmp	r9, #0
 1567 0940 09D1     		bne	.L141
 1568              		.loc 1 780 0
 1569 0942 079B     		ldr	r3, [sp, #28]
 1570 0944 002B     		cmp	r3, #0
 1571 0946 01F08385 		beq	.L142
 1572              		.loc 1 782 0
 1573 094a 3F48     		ldr	r0, .L836+16
 1574 094c 0368     		ldr	r3, [r0]
 1575 094e 0122     		movs	r2, #1
 1576 0950 5B68     		ldr	r3, [r3, #4]
 1577 0952 14A9     		add	r1, sp, #80
 1578 0954 9847     		blx	r3
 1579              	.LVL86:
 1580              	.L141:
 1581              		.loc 1 795 0
 1582 0956 FFF7FEFF 		bl	serial_get_last_errors
 1583              	.LVL87:
 1584 095a 0028     		cmp	r0, #0
 1585 095c 40F04583 		bne	.L144
 1586              		.loc 1 803 0
 1587 0960 9DF85030 		ldrb	r3, [sp, #80]	@ zero_extendqisi2
 1588 0964 012B     		cmp	r3, #1
 1589 0966 01F03685 		beq	.L806
 1590              	.L153:
 1591              		.loc 1 893 0
 1592 096a DAF80030 		ldr	r3, [r10]
 1593 096e 354C     		ldr	r4, .L836+12
 1594 0970 0021     		movs	r1, #0
 1595 0972 5A1C     		adds	r2, r3, #1
 1596 0974 E154     		strb	r1, [r4, r3]
ARM GAS  C:\Users\marwa\AppData\Local\Temp\ccNqFJyR.s 			page 29


 1597 0976 CAF80020 		str	r2, [r10]
 1598              		.loc 1 895 0
 1599 097a ADE5     		b	.L61
 1600              	.L69:
 1601              		.loc 1 764 0
 1602 097c FFF7FEFF 		bl	sdio_is_present
 1603              	.LVL88:
 1604 0980 0028     		cmp	r0, #0
 1605 0982 40F03486 		bne	.L807
 1606              	.L780:
 1607              		.loc 1 853 0
 1608 0986 DAF80030 		ldr	r3, [r10]
 1609 098a 2E4C     		ldr	r4, .L836+12
 1610 098c 5A1C     		adds	r2, r3, #1
 1611 098e E054     		strb	r0, [r4, r3]
 1612 0990 CAF80020 		str	r2, [r10]
 1613              		.loc 1 855 0
 1614 0994 A0E5     		b	.L61
 1615              	.L66:
 1616              		.loc 1 728 0
 1617 0996 DAF80050 		ldr	r5, [r10]
 1618 099a 2A4C     		ldr	r4, .L836+12
 1619 099c 6B1C     		adds	r3, r5, #1
 1620 099e CAF80030 		str	r3, [r10]
 1621 09a2 FFF7FEFF 		bl	button_get_state
 1622              	.LVL89:
 1623 09a6 6055     		strb	r0, [r4, r5]
 1624              		.loc 1 729 0
 1625 09a8 96E5     		b	.L61
 1626              	.L68:
 1627              		.loc 1 750 0
 1628 09aa B9F1000F 		cmp	r9, #0
 1629 09ae 00F01086 		beq	.L808
 1630              		.loc 1 758 0
 1631 09b2 DAF80020 		ldr	r2, [r10]
 1632 09b6 234C     		ldr	r4, .L836+12
 1633              		.loc 1 759 0
 1634 09b8 A018     		adds	r0, r4, r2
 1635              		.loc 1 758 0
 1636 09ba 0021     		movs	r1, #0
 1637              		.loc 1 759 0
 1638 09bc 951C     		adds	r5, r2, #2
 1639              		.loc 1 758 0
 1640 09be A154     		strb	r1, [r4, r2]
 1641              		.loc 1 759 0
 1642 09c0 CAF80050 		str	r5, [r10]
 1643 09c4 4170     		strb	r1, [r0, #1]
 1644 09c6 76E4     		b	.L60
 1645              	.L67:
 1646              		.loc 1 732 0
 1647 09c8 0020     		movs	r0, #0
 1648 09ca FFF7FEFF 		bl	e_get_micro_volume
 1649              	.LVL90:
 1650              		.loc 1 733 0
 1651 09ce 1D4C     		ldr	r4, .L836+12
 1652 09d0 DAF80030 		ldr	r3, [r10]
 1653              		.loc 1 734 0
ARM GAS  C:\Users\marwa\AppData\Local\Temp\ccNqFJyR.s 			page 30


 1654 09d4 E218     		adds	r2, r4, r3
 1655 09d6 0112     		asrs	r1, r0, #8
 1656              		.loc 1 733 0
 1657 09d8 E054     		strb	r0, [r4, r3]
 1658              		.loc 1 734 0
 1659 09da 0233     		adds	r3, r3, #2
 1660              		.loc 1 736 0
 1661 09dc 0120     		movs	r0, #1
 1662              		.loc 1 734 0
 1663 09de 5170     		strb	r1, [r2, #1]
 1664 09e0 CAF80030 		str	r3, [r10]
 1665              		.loc 1 736 0
 1666 09e4 FFF7FEFF 		bl	e_get_micro_volume
 1667              	.LVL91:
 1668              		.loc 1 737 0
 1669 09e8 DAF80030 		ldr	r3, [r10]
 1670              		.loc 1 738 0
 1671 09ec E218     		adds	r2, r4, r3
 1672 09ee 0112     		asrs	r1, r0, #8
 1673              		.loc 1 737 0
 1674 09f0 E054     		strb	r0, [r4, r3]
 1675              		.loc 1 738 0
 1676 09f2 0233     		adds	r3, r3, #2
 1677              		.loc 1 740 0
 1678 09f4 0220     		movs	r0, #2
 1679              		.loc 1 738 0
 1680 09f6 5170     		strb	r1, [r2, #1]
 1681 09f8 CAF80030 		str	r3, [r10]
 1682              		.loc 1 740 0
 1683 09fc FFF7FEFF 		bl	e_get_micro_volume
 1684              	.LVL92:
 1685              		.loc 1 741 0
 1686 0a00 DAF80030 		ldr	r3, [r10]
 1687              		.loc 1 742 0
 1688 0a04 0112     		asrs	r1, r0, #8
 1689              		.loc 1 741 0
 1690 0a06 E054     		strb	r0, [r4, r3]
 1691              		.loc 1 742 0
 1692 0a08 E218     		adds	r2, r4, r3
 1693              		.loc 1 744 0
 1694 0a0a 0320     		movs	r0, #3
 1695              		.loc 1 742 0
 1696 0a0c 0233     		adds	r3, r3, #2
 1697 0a0e 66E7     		b	.L781
 1698              	.L64:
 1699              		.loc 1 563 0
 1700 0a10 B9F1000F 		cmp	r9, #0
 1701 0a14 7FF4D5AC 		bne	.L108
 1702              		.loc 1 566 0
 1703 0a18 079B     		ldr	r3, [sp, #28]
 1704 0a1a 002B     		cmp	r3, #0
 1705 0a1c 3FF4C2AC 		beq	.L109
 1706              		.loc 1 568 0
 1707 0a20 0948     		ldr	r0, .L836+16
 1708 0a22 0368     		ldr	r3, [r0]
 1709 0a24 1322     		movs	r2, #19
 1710 0a26 5B68     		ldr	r3, [r3, #4]
ARM GAS  C:\Users\marwa\AppData\Local\Temp\ccNqFJyR.s 			page 31


 1711 0a28 14A9     		add	r1, sp, #80
 1712 0a2a 9847     		blx	r3
 1713              	.LVL93:
 1714              		.loc 1 581 0
 1715 0a2c FFF7FEFF 		bl	serial_get_last_errors
 1716              	.LVL94:
 1717 0a30 0028     		cmp	r0, #0
 1718 0a32 3FF4CBAC 		beq	.L111
 1719 0a36 D8E2     		b	.L144
 1720              	.L837:
 1721              		.align	2
 1722              	.L836:
 1723 0a38 00000000 		.word	.LANCHOR7
 1724 0a3c 00000000 		.word	.LANCHOR8
 1725 0a40 00000000 		.word	.LANCHOR9
 1726 0a44 00000000 		.word	buffer
 1727 0a48 00000000 		.word	SD3
 1728              	.L62:
 1729              		.loc 1 366 0
 1730 0a4c B9F1000F 		cmp	r9, #0
 1731 0a50 00F0A085 		beq	.L809
 1732              		.loc 1 374 0
 1733 0a54 D24B     		ldr	r3, .L838
 1734              		.loc 1 375 0
 1735 0a56 D348     		ldr	r0, .L838+4
 1736              		.loc 1 376 0
 1737 0a58 D349     		ldr	r1, .L838+8
 1738              		.loc 1 374 0
 1739 0a5a 0022     		movs	r2, #0
 1740 0a5c 1A60     		str	r2, [r3]
 1741              		.loc 1 375 0
 1742 0a5e 0260     		str	r2, [r0]
 1743              		.loc 1 376 0
 1744 0a60 1346     		mov	r3, r2
 1745 0a62 0A60     		str	r2, [r1]
 1746 0a64 9446     		mov	ip, r2
 1747 0a66 1546     		mov	r5, r2
 1748 0a68 9646     		mov	lr, r2
 1749 0a6a 1646     		mov	r6, r2
 1750 0a6c 1046     		mov	r0, r2
 1751              	.L92:
 1752              		.loc 1 378 0
 1753 0a6e DAF80020 		ldr	r2, [r10]
 1754 0a72 CE4C     		ldr	r4, .L838+12
 1755              		.loc 1 379 0
 1756 0a74 A118     		adds	r1, r4, r2
 1757              		.loc 1 378 0
 1758 0a76 A054     		strb	r0, [r4, r2]
 1759              		.loc 1 383 0
 1760 0a78 0632     		adds	r2, r2, #6
 1761              		.loc 1 379 0
 1762 0a7a 4E70     		strb	r6, [r1, #1]
 1763              		.loc 1 380 0
 1764 0a7c 81F802E0 		strb	lr, [r1, #2]
 1765              		.loc 1 381 0
 1766 0a80 CD70     		strb	r5, [r1, #3]
 1767              		.loc 1 382 0
ARM GAS  C:\Users\marwa\AppData\Local\Temp\ccNqFJyR.s 			page 32


 1768 0a82 81F804C0 		strb	ip, [r1, #4]
 1769              		.loc 1 383 0
 1770 0a86 4B71     		strb	r3, [r1, #5]
 1771 0a88 CAF80020 		str	r2, [r10]
 1772              		.loc 1 385 0
 1773 0a8c B9F1000F 		cmp	r9, #0
 1774 0a90 01F0D283 		beq	.L810
 1775              		.loc 1 393 0
 1776 0a94 0021     		movs	r1, #0
 1777              		.loc 1 391 0
 1778 0a96 C64B     		ldr	r3, .L838+16
 1779              		.loc 1 393 0
 1780 0a98 0F91     		str	r1, [sp, #60]
 1781 0a9a CDE91211 		strd	r1, r1, [sp, #72]
 1782 0a9e CDE91011 		strd	r1, r1, [sp, #64]
 1783              		.loc 1 391 0
 1784 0aa2 83ED008A 		vstr.32	s16, [r3]
 1785              		.loc 1 392 0
 1786 0aa6 83ED028A 		vstr.32	s16, [r3, #8]
 1787              		.loc 1 393 0
 1788 0aaa 83ED018A 		vstr.32	s16, [r3, #4]
 1789 0aae 0E46     		mov	r6, r1
 1790 0ab0 8C46     		mov	ip, r1
 1791 0ab2 8E46     		mov	lr, r1
 1792 0ab4 0E91     		str	r1, [sp, #56]
 1793 0ab6 0D46     		mov	r5, r1
 1794 0ab8 0846     		mov	r0, r1
 1795              	.L94:
 1796              	.LVL95:
 1797              		.loc 1 398 0
 1798 0aba A318     		adds	r3, r4, r2
 1799              		.loc 1 396 0
 1800 0abc A054     		strb	r0, [r4, r2]
 1801              	.LVL96:
 1802              		.loc 1 398 0
 1803 0abe 5D70     		strb	r5, [r3, #1]
 1804              	.LVL97:
 1805              		.loc 1 400 0
 1806 0ac0 9DF83850 		ldrb	r5, [sp, #56]	@ zero_extendqisi2
 1807 0ac4 9D70     		strb	r5, [r3, #2]
 1808              	.LVL98:
 1809              		.loc 1 409 0
 1810 0ac6 9DF83C50 		ldrb	r5, [sp, #60]	@ zero_extendqisi2
 1811 0aca 9D71     		strb	r5, [r3, #6]
 1812              		.loc 1 411 0
 1813 0acc 9DF84050 		ldrb	r5, [sp, #64]	@ zero_extendqisi2
 1814 0ad0 DD71     		strb	r5, [r3, #7]
 1815              		.loc 1 414 0
 1816 0ad2 9DF84450 		ldrb	r5, [sp, #68]	@ zero_extendqisi2
 1817 0ad6 1D72     		strb	r5, [r3, #8]
 1818              		.loc 1 416 0
 1819 0ad8 9DF84850 		ldrb	r5, [sp, #72]	@ zero_extendqisi2
 1820 0adc 5D72     		strb	r5, [r3, #9]
 1821              		.loc 1 420 0
 1822 0ade 02F10C00 		add	r0, r2, #12
 1823              		.loc 1 418 0
 1824 0ae2 9DF84C50 		ldrb	r5, [sp, #76]	@ zero_extendqisi2
ARM GAS  C:\Users\marwa\AppData\Local\Temp\ccNqFJyR.s 			page 33


 1825              		.loc 1 402 0
 1826 0ae6 83F803E0 		strb	lr, [r3, #3]
 1827              	.LVL99:
 1828              		.loc 1 405 0
 1829 0aea 83F804C0 		strb	ip, [r3, #4]
 1830              	.LVL100:
 1831              		.loc 1 407 0
 1832 0aee 5E71     		strb	r6, [r3, #5]
 1833              	.LVL101:
 1834              		.loc 1 418 0
 1835 0af0 9D72     		strb	r5, [r3, #10]
 1836              	.LVL102:
 1837              		.loc 1 420 0
 1838 0af2 D972     		strb	r1, [r3, #11]
 1839 0af4 CAF80000 		str	r0, [r10]
 1840              		.loc 1 423 0
 1841 0af8 B9F1000F 		cmp	r9, #0
 1842 0afc 01F07E83 		beq	.L811
 1843              		.loc 1 435 0
 1844 0b00 0021     		movs	r1, #0
 1845              		.loc 1 440 0
 1846 0b02 1232     		adds	r2, r2, #18
 1847              		.loc 1 435 0
 1848 0b04 2154     		strb	r1, [r4, r0]
 1849              		.loc 1 440 0
 1850 0b06 CAF80020 		str	r2, [r10]
 1851              		.loc 1 436 0
 1852 0b0a 5973     		strb	r1, [r3, #13]
 1853              		.loc 1 437 0
 1854 0b0c 9973     		strb	r1, [r3, #14]
 1855              		.loc 1 438 0
 1856 0b0e D973     		strb	r1, [r3, #15]
 1857              		.loc 1 439 0
 1858 0b10 1974     		strb	r1, [r3, #16]
 1859              		.loc 1 440 0
 1860 0b12 5974     		strb	r1, [r3, #17]
 1861              	.L96:
 1862              		.loc 1 444 0
 1863 0b14 A74D     		ldr	r5, .L838+20
 1864 0b16 0020     		movs	r0, #0
 1865 0b18 2860     		str	r0, [r5]
 1866              	.L97:
 1867              		.loc 1 446 0 discriminator 3
 1868 0b1a C0B2     		uxtb	r0, r0
 1869 0b1c FFF7FEFF 		bl	get_magnetic_field
 1870              	.LVL103:
 1871              		.loc 1 448 0 discriminator 3
 1872 0b20 DAF80020 		ldr	r2, [r10]
 1873              		.loc 1 444 0 discriminator 3
 1874 0b24 2868     		ldr	r0, [r5]
 1875              		.loc 1 447 0 discriminator 3
 1876 0b26 10EE103A 		vmov	r3, s0	@ int
 1877              	.LVL104:
 1878              		.loc 1 449 0 discriminator 3
 1879 0b2a A118     		adds	r1, r4, r2
 1880 0b2c 1E0A     		lsrs	r6, r3, #8
 1881              		.loc 1 448 0 discriminator 3
ARM GAS  C:\Users\marwa\AppData\Local\Temp\ccNqFJyR.s 			page 34


 1882 0b2e A354     		strb	r3, [r4, r2]
 1883              		.loc 1 444 0 discriminator 3
 1884 0b30 0130     		adds	r0, r0, #1
 1885              		.loc 1 449 0 discriminator 3
 1886 0b32 4E70     		strb	r6, [r1, #1]
 1887              		.loc 1 450 0 discriminator 3
 1888 0b34 1E0C     		lsrs	r6, r3, #16
 1889 0b36 8E70     		strb	r6, [r1, #2]
 1890              		.loc 1 451 0 discriminator 3
 1891 0b38 1B0E     		lsrs	r3, r3, #24
 1892 0b3a 161D     		adds	r6, r2, #4
 1893              		.loc 1 444 0 discriminator 3
 1894 0b3c 0228     		cmp	r0, #2
 1895              		.loc 1 451 0 discriminator 3
 1896 0b3e CB70     		strb	r3, [r1, #3]
 1897 0b40 CAF80060 		str	r6, [r10]
 1898              		.loc 1 444 0 discriminator 3
 1899 0b44 2860     		str	r0, [r5]
 1900 0b46 E8DD     		ble	.L97
 1901              		.loc 1 455 0
 1902 0b48 B9F1000F 		cmp	r9, #0
 1903 0b4c 01F04C83 		beq	.L812
 1904              		.loc 1 461 0
 1905 0b50 0023     		movs	r3, #0
 1906 0b52 0532     		adds	r2, r2, #5
 1907 0b54 A355     		strb	r3, [r4, r6]
 1908 0b56 CAF80020 		str	r2, [r10]
 1909              	.LVL105:
 1910              	.L99:
 1911              		.loc 1 465 0
 1912 0b5a 0020     		movs	r0, #0
 1913 0b5c 2860     		str	r0, [r5]
 1914              	.L100:
 1915              		.loc 1 467 0 discriminator 3
 1916 0b5e FFF7FEFF 		bl	e_get_calibrated_prox
 1917              	.LVL106:
 1918              		.loc 1 468 0 discriminator 3
 1919 0b62 DAF80020 		ldr	r2, [r10]
 1920              		.loc 1 465 0 discriminator 3
 1921 0b66 2B68     		ldr	r3, [r5]
 1922              		.loc 1 468 0 discriminator 3
 1923 0b68 A054     		strb	r0, [r4, r2]
 1924              		.loc 1 469 0 discriminator 3
 1925 0b6a A618     		adds	r6, r4, r2
 1926 0b6c 0112     		asrs	r1, r0, #8
 1927              		.loc 1 465 0 discriminator 3
 1928 0b6e 581C     		adds	r0, r3, #1
 1929              		.loc 1 469 0 discriminator 3
 1930 0b70 0232     		adds	r2, r2, #2
 1931              		.loc 1 465 0 discriminator 3
 1932 0b72 0728     		cmp	r0, #7
 1933              		.loc 1 469 0 discriminator 3
 1934 0b74 7170     		strb	r1, [r6, #1]
 1935 0b76 CAF80020 		str	r2, [r10]
 1936              		.loc 1 465 0 discriminator 3
 1937 0b7a 2860     		str	r0, [r5]
 1938 0b7c EFDD     		ble	.L100
ARM GAS  C:\Users\marwa\AppData\Local\Temp\ccNqFJyR.s 			page 35


 1939              		.loc 1 473 0
 1940 0b7e 0020     		movs	r0, #0
 1941 0b80 2860     		str	r0, [r5]
 1942              	.L101:
 1943              		.loc 1 475 0 discriminator 3
 1944 0b82 FFF7FEFF 		bl	e_get_ambient_light
 1945              	.LVL107:
 1946              		.loc 1 476 0 discriminator 3
 1947 0b86 DAF80010 		ldr	r1, [r10]
 1948              		.loc 1 473 0 discriminator 3
 1949 0b8a 2B68     		ldr	r3, [r5]
 1950              		.loc 1 476 0 discriminator 3
 1951 0b8c 6054     		strb	r0, [r4, r1]
 1952              		.loc 1 477 0 discriminator 3
 1953 0b8e 0212     		asrs	r2, r0, #8
 1954 0b90 6618     		adds	r6, r4, r1
 1955              		.loc 1 473 0 discriminator 3
 1956 0b92 581C     		adds	r0, r3, #1
 1957 0b94 0728     		cmp	r0, #7
 1958              		.loc 1 477 0 discriminator 3
 1959 0b96 01F10203 		add	r3, r1, #2
 1960 0b9a 7270     		strb	r2, [r6, #1]
 1961 0b9c CAF80030 		str	r3, [r10]
 1962              		.loc 1 473 0 discriminator 3
 1963 0ba0 2860     		str	r0, [r5]
 1964 0ba2 EEDD     		ble	.L101
 1965              		.loc 1 481 0
 1966 0ba4 B9F1000F 		cmp	r9, #0
 1967 0ba8 01F07983 		beq	.L813
 1968              		.loc 1 489 0
 1969 0bac 0022     		movs	r2, #0
 1970              		.loc 1 490 0
 1971 0bae 0431     		adds	r1, r1, #4
 1972              		.loc 1 489 0
 1973 0bb0 E254     		strb	r2, [r4, r3]
 1974              		.loc 1 490 0
 1975 0bb2 CAF80010 		str	r1, [r10]
 1976 0bb6 F270     		strb	r2, [r6, #3]
 1977              	.L103:
 1978              		.loc 1 494 0
 1979 0bb8 0020     		movs	r0, #0
 1980 0bba FFF7FEFF 		bl	e_get_micro_volume
 1981              	.LVL108:
 1982              		.loc 1 495 0
 1983 0bbe DAF80030 		ldr	r3, [r10]
 1984              		.loc 1 496 0
 1985 0bc2 E218     		adds	r2, r4, r3
 1986 0bc4 0112     		asrs	r1, r0, #8
 1987              		.loc 1 495 0
 1988 0bc6 E054     		strb	r0, [r4, r3]
 1989              		.loc 1 496 0
 1990 0bc8 0233     		adds	r3, r3, #2
 1991              		.loc 1 497 0
 1992 0bca 0120     		movs	r0, #1
 1993              		.loc 1 496 0
 1994 0bcc 5170     		strb	r1, [r2, #1]
 1995 0bce CAF80030 		str	r3, [r10]
ARM GAS  C:\Users\marwa\AppData\Local\Temp\ccNqFJyR.s 			page 36


 1996              		.loc 1 497 0
 1997 0bd2 FFF7FEFF 		bl	e_get_micro_volume
 1998              	.LVL109:
 1999              		.loc 1 498 0
 2000 0bd6 DAF80030 		ldr	r3, [r10]
 2001              		.loc 1 499 0
 2002 0bda E218     		adds	r2, r4, r3
 2003 0bdc 0112     		asrs	r1, r0, #8
 2004              		.loc 1 498 0
 2005 0bde E054     		strb	r0, [r4, r3]
 2006              		.loc 1 499 0
 2007 0be0 0233     		adds	r3, r3, #2
 2008              		.loc 1 500 0
 2009 0be2 0220     		movs	r0, #2
 2010              		.loc 1 499 0
 2011 0be4 5170     		strb	r1, [r2, #1]
 2012 0be6 CAF80030 		str	r3, [r10]
 2013              		.loc 1 500 0
 2014 0bea FFF7FEFF 		bl	e_get_micro_volume
 2015              	.LVL110:
 2016              		.loc 1 501 0
 2017 0bee DAF80030 		ldr	r3, [r10]
 2018              		.loc 1 502 0
 2019 0bf2 E218     		adds	r2, r4, r3
 2020 0bf4 0112     		asrs	r1, r0, #8
 2021              		.loc 1 501 0
 2022 0bf6 E054     		strb	r0, [r4, r3]
 2023              		.loc 1 502 0
 2024 0bf8 0233     		adds	r3, r3, #2
 2025              		.loc 1 503 0
 2026 0bfa 0320     		movs	r0, #3
 2027              		.loc 1 502 0
 2028 0bfc 5170     		strb	r1, [r2, #1]
 2029 0bfe CAF80030 		str	r3, [r10]
 2030              		.loc 1 503 0
 2031 0c02 FFF7FEFF 		bl	e_get_micro_volume
 2032              	.LVL111:
 2033              		.loc 1 504 0
 2034 0c06 DAF80030 		ldr	r3, [r10]
 2035              		.loc 1 505 0
 2036 0c0a E218     		adds	r2, r4, r3
 2037 0c0c 0112     		asrs	r1, r0, #8
 2038              		.loc 1 504 0
 2039 0c0e E054     		strb	r0, [r4, r3]
 2040              		.loc 1 505 0
 2041 0c10 0233     		adds	r3, r3, #2
 2042 0c12 5170     		strb	r1, [r2, #1]
 2043 0c14 CAF80030 		str	r3, [r10]
 2044              		.loc 1 508 0
 2045 0c18 FFF7FEFF 		bl	e_get_steps_left
 2046              	.LVL112:
 2047              		.loc 1 509 0
 2048 0c1c DAF80030 		ldr	r3, [r10]
 2049              		.loc 1 510 0
 2050 0c20 E218     		adds	r2, r4, r3
 2051 0c22 0112     		asrs	r1, r0, #8
 2052              		.loc 1 509 0
ARM GAS  C:\Users\marwa\AppData\Local\Temp\ccNqFJyR.s 			page 37


 2053 0c24 E054     		strb	r0, [r4, r3]
 2054              		.loc 1 510 0
 2055 0c26 0233     		adds	r3, r3, #2
 2056 0c28 5170     		strb	r1, [r2, #1]
 2057 0c2a CAF80030 		str	r3, [r10]
 2058              		.loc 1 511 0
 2059 0c2e FFF7FEFF 		bl	e_get_steps_right
 2060              	.LVL113:
 2061              		.loc 1 512 0
 2062 0c32 DAF80030 		ldr	r3, [r10]
 2063              		.loc 1 513 0
 2064 0c36 E218     		adds	r2, r4, r3
 2065 0c38 0112     		asrs	r1, r0, #8
 2066              		.loc 1 512 0
 2067 0c3a E054     		strb	r0, [r4, r3]
 2068              		.loc 1 513 0
 2069 0c3c 0233     		adds	r3, r3, #2
 2070 0c3e 5170     		strb	r1, [r2, #1]
 2071 0c40 CAF80030 		str	r3, [r10]
 2072              		.loc 1 516 0
 2073 0c44 FFF7FEFF 		bl	getBatteryValueRaw
 2074              	.LVL114:
 2075              		.loc 1 517 0
 2076 0c48 DAF80030 		ldr	r3, [r10]
 2077              		.loc 1 518 0
 2078 0c4c E218     		adds	r2, r4, r3
 2079              		.loc 1 517 0
 2080 0c4e E054     		strb	r0, [r4, r3]
 2081              		.loc 1 518 0
 2082 0c50 010A     		lsrs	r1, r0, #8
 2083 0c52 0233     		adds	r3, r3, #2
 2084 0c54 5170     		strb	r1, [r2, #1]
 2085 0c56 CAF80030 		str	r3, [r10]
 2086              		.loc 1 521 0
 2087 0c5a FFF7FEFF 		bl	sdio_is_present
 2088              	.LVL115:
 2089 0c5e 0028     		cmp	r0, #0
 2090 0c60 41F00C83 		bne	.L814
 2091              		.loc 1 529 0
 2092 0c64 DAF80060 		ldr	r6, [r10]
 2093 0c68 A055     		strb	r0, [r4, r6]
 2094 0c6a 0136     		adds	r6, r6, #1
 2095              	.L105:
 2096              		.loc 1 533 0
 2097 0c6c 731C     		adds	r3, r6, #1
 2098 0c6e CAF80030 		str	r3, [r10]
 2099 0c72 FFF7FEFF 		bl	e_get_check
 2100              	.LVL116:
 2101              		.loc 1 534 0
 2102 0c76 DAF80020 		ldr	r2, [r10]
 2103              		.loc 1 533 0
 2104 0c7a A055     		strb	r0, [r4, r6]
 2105              		.loc 1 534 0
 2106 0c7c 531C     		adds	r3, r2, #1
 2107 0c7e 0E92     		str	r2, [sp, #56]
 2108 0c80 CAF80030 		str	r3, [r10]
 2109 0c84 FFF7FEFF 		bl	e_get_address
ARM GAS  C:\Users\marwa\AppData\Local\Temp\ccNqFJyR.s 			page 38


 2110              	.LVL117:
 2111              		.loc 1 535 0
 2112 0c88 DAF80060 		ldr	r6, [r10]
 2113              		.loc 1 534 0
 2114 0c8c 0E9A     		ldr	r2, [sp, #56]
 2115              		.loc 1 535 0
 2116 0c8e 731C     		adds	r3, r6, #1
 2117              		.loc 1 534 0
 2118 0c90 A054     		strb	r0, [r4, r2]
 2119              		.loc 1 535 0
 2120 0c92 CAF80030 		str	r3, [r10]
 2121 0c96 FFF7FEFF 		bl	e_get_data
 2122              	.LVL118:
 2123              		.loc 1 538 0
 2124 0c9a 474A     		ldr	r2, .L838+24
 2125              		.loc 1 535 0
 2126 0c9c A055     		strb	r0, [r4, r6]
 2127              		.loc 1 538 0
 2128 0c9e 474E     		ldr	r6, .L838+28
 2129 0ca0 3369     		ldr	r3, [r6, #16]
 2130 0ca2 3169     		ldr	r1, [r6, #16]
 2131 0ca4 1069     		ldr	r0, [r2, #16]
 2132 0ca6 3269     		ldr	r2, [r6, #16]
 2133 0ca8 C0F30010 		ubfx	r0, r0, #4, #1
 2134 0cac C1F3C031 		ubfx	r1, r1, #15, #1
 2135 0cb0 01EB4001 		add	r1, r1, r0, lsl #1
 2136 0cb4 C2F38032 		ubfx	r2, r2, #14, #1
 2137 0cb8 02EB4102 		add	r2, r2, r1, lsl #1
 2138 0cbc C3F34033 		ubfx	r3, r3, #13, #1
 2139              		.loc 1 539 0
 2140 0cc0 DAF80010 		ldr	r1, [r10]
 2141              		.loc 1 538 0
 2142 0cc4 03EB4203 		add	r3, r3, r2, lsl #1
 2143 0cc8 3D4A     		ldr	r2, .L838+32
 2144              		.loc 1 539 0
 2145 0cca 6354     		strb	r3, [r4, r1]
 2146              		.loc 1 542 0
 2147 0ccc 0020     		movs	r0, #0
 2148              		.loc 1 539 0
 2149 0cce 0131     		adds	r1, r1, #1
 2150              		.loc 1 538 0
 2151 0cd0 1360     		str	r3, [r2]
 2152              		.loc 1 539 0
 2153 0cd2 CAF80010 		str	r1, [r10]
 2154              		.loc 1 542 0
 2155 0cd6 2860     		str	r0, [r5]
 2156              	.L106:
 2157              		.loc 1 544 0 discriminator 3
 2158 0cd8 FFF7FEFF 		bl	get_ground_prox
 2159              	.LVL119:
 2160              		.loc 1 545 0 discriminator 3
 2161 0cdc DAF80020 		ldr	r2, [r10]
 2162              		.loc 1 542 0 discriminator 3
 2163 0ce0 2B68     		ldr	r3, [r5]
 2164              		.loc 1 545 0 discriminator 3
 2165 0ce2 A054     		strb	r0, [r4, r2]
 2166              		.loc 1 546 0 discriminator 3
ARM GAS  C:\Users\marwa\AppData\Local\Temp\ccNqFJyR.s 			page 39


 2167 0ce4 A618     		adds	r6, r4, r2
 2168 0ce6 0112     		asrs	r1, r0, #8
 2169              		.loc 1 542 0 discriminator 3
 2170 0ce8 581C     		adds	r0, r3, #1
 2171              		.loc 1 546 0 discriminator 3
 2172 0cea 0232     		adds	r2, r2, #2
 2173              		.loc 1 542 0 discriminator 3
 2174 0cec 0228     		cmp	r0, #2
 2175              		.loc 1 546 0 discriminator 3
 2176 0cee 7170     		strb	r1, [r6, #1]
 2177 0cf0 CAF80020 		str	r2, [r10]
 2178              		.loc 1 542 0 discriminator 3
 2179 0cf4 2860     		str	r0, [r5]
 2180 0cf6 EFDD     		ble	.L106
 2181              		.loc 1 550 0
 2182 0cf8 0020     		movs	r0, #0
 2183 0cfa 2860     		str	r0, [r5]
 2184              	.L107:
 2185              		.loc 1 552 0 discriminator 3
 2186 0cfc FFF7FEFF 		bl	get_ground_ambient_light
 2187              	.LVL120:
 2188              		.loc 1 553 0 discriminator 3
 2189 0d00 DAF80010 		ldr	r1, [r10]
 2190              		.loc 1 550 0 discriminator 3
 2191 0d04 2B68     		ldr	r3, [r5]
 2192              		.loc 1 553 0 discriminator 3
 2193 0d06 6054     		strb	r0, [r4, r1]
 2194              		.loc 1 554 0 discriminator 3
 2195 0d08 0212     		asrs	r2, r0, #8
 2196 0d0a 6618     		adds	r6, r4, r1
 2197              		.loc 1 550 0 discriminator 3
 2198 0d0c 581C     		adds	r0, r3, #1
 2199 0d0e 0228     		cmp	r0, #2
 2200              		.loc 1 554 0 discriminator 3
 2201 0d10 01F10203 		add	r3, r1, #2
 2202 0d14 7270     		strb	r2, [r6, #1]
 2203 0d16 CAF80030 		str	r3, [r10]
 2204              		.loc 1 550 0 discriminator 3
 2205 0d1a 2860     		str	r0, [r5]
 2206 0d1c EEDD     		ble	.L107
 2207              		.loc 1 558 0
 2208 0d1e 0331     		adds	r1, r1, #3
 2209 0d20 0022     		movs	r2, #0
 2210 0d22 CAF80010 		str	r1, [r10]
 2211 0d26 E254     		strb	r2, [r4, r3]
 2212              		.loc 1 559 0
 2213 0d28 FFF7D6BB 		b	.L61
 2214              	.LVL121:
 2215              	.L65:
 2216              		.loc 1 705 0
 2217 0d2c 214D     		ldr	r5, .L838+20
 2218 0d2e 254C     		ldr	r4, .L838+36
 2219 0d30 0020     		movs	r0, #0
 2220 0d32 4E46     		mov	r6, r9
 2221 0d34 DDF81C90 		ldr	r9, [sp, #28]
 2222 0d38 2860     		str	r0, [r5]
 2223              	.L136:
ARM GAS  C:\Users\marwa\AppData\Local\Temp\ccNqFJyR.s 			page 40


 2224              		.loc 1 707 0
 2225 0d3a 56B9     		cbnz	r6, .L131
 2226              		.loc 1 710 0
 2227 0d3c B9F1000F 		cmp	r9, #0
 2228 0d40 27D0     		beq	.L132
 2229 0d42 00E0     		b	.L134
 2230              	.L133:
 2231 0d44 2868     		ldr	r0, [r5]
 2232              	.L134:
 2233              		.loc 1 712 0 discriminator 1
 2234 0d46 2044     		add	r0, r0, r4
 2235 0d48 FFF7FEFF 		bl	e_getchar_uart1
 2236              	.LVL122:
 2237 0d4c 0028     		cmp	r0, #0
 2238 0d4e F9D0     		beq	.L133
 2239              	.L779:
 2240 0d50 2868     		ldr	r0, [r5]
 2241              	.L131:
 2242              		.loc 1 705 0 discriminator 2
 2243 0d52 0130     		adds	r0, r0, #1
 2244 0d54 0B28     		cmp	r0, #11
 2245 0d56 2860     		str	r0, [r5]
 2246 0d58 EFDD     		ble	.L136
 2247              		.loc 1 721 0
 2248 0d5a A378     		ldrb	r3, [r4, #2]	@ zero_extendqisi2
 2249 0d5c 6278     		ldrb	r2, [r4, #1]	@ zero_extendqisi2
 2250 0d5e 2178     		ldrb	r1, [r4]	@ zero_extendqisi2
 2251 0d60 0020     		movs	r0, #0
 2252 0d62 FFF7FEFF 		bl	set_rgb_led
 2253              	.LVL123:
 2254              		.loc 1 722 0
 2255 0d66 6379     		ldrb	r3, [r4, #5]	@ zero_extendqisi2
 2256 0d68 2279     		ldrb	r2, [r4, #4]	@ zero_extendqisi2
 2257 0d6a E178     		ldrb	r1, [r4, #3]	@ zero_extendqisi2
 2258 0d6c 0120     		movs	r0, #1
 2259 0d6e FFF7FEFF 		bl	set_rgb_led
 2260              	.LVL124:
 2261              		.loc 1 723 0
 2262 0d72 237A     		ldrb	r3, [r4, #8]	@ zero_extendqisi2
 2263 0d74 E279     		ldrb	r2, [r4, #7]	@ zero_extendqisi2
 2264 0d76 A179     		ldrb	r1, [r4, #6]	@ zero_extendqisi2
 2265 0d78 0220     		movs	r0, #2
 2266 0d7a FFF7FEFF 		bl	set_rgb_led
 2267              	.LVL125:
 2268              		.loc 1 724 0
 2269 0d7e E37A     		ldrb	r3, [r4, #11]	@ zero_extendqisi2
 2270 0d80 A27A     		ldrb	r2, [r4, #10]	@ zero_extendqisi2
 2271 0d82 617A     		ldrb	r1, [r4, #9]	@ zero_extendqisi2
 2272 0d84 0320     		movs	r0, #3
 2273 0d86 B146     		mov	r9, r6
 2274 0d88 FFF7FEFF 		bl	set_rgb_led
 2275              	.LVL126:
 2276              		.loc 1 725 0
 2277 0d8c FFF7A4BB 		b	.L61
 2278              	.L135:
 2279 0d90 2868     		ldr	r0, [r5]
 2280              	.L132:
ARM GAS  C:\Users\marwa\AppData\Local\Temp\ccNqFJyR.s 			page 41


 2281              		.loc 1 717 0 discriminator 1
 2282 0d92 2044     		add	r0, r0, r4
 2283 0d94 FFF7FEFF 		bl	e_getchar_uart2
 2284              	.LVL127:
 2285 0d98 0028     		cmp	r0, #0
 2286 0d9a F9D0     		beq	.L135
 2287 0d9c D8E7     		b	.L779
 2288              	.L839:
 2289 0d9e 00BF     		.align	2
 2290              	.L838:
 2291 0da0 00000000 		.word	.LANCHOR11
 2292 0da4 00000000 		.word	.LANCHOR12
 2293 0da8 00000000 		.word	.LANCHOR13
 2294 0dac 00000000 		.word	buffer
 2295 0db0 00000000 		.word	.LANCHOR14
 2296 0db4 00000000 		.word	.LANCHOR18
 2297 0db8 000C0240 		.word	1073875968
 2298 0dbc 00080240 		.word	1073874944
 2299 0dc0 00000000 		.word	selector
 2300 0dc4 00000000 		.word	.LANCHOR19
 2301              	.L86:
 2302              		.loc 1 962 0
 2303 0dc8 FFF7FEFF 		bl	getBatteryValueRaw
 2304              	.LVL128:
 2305              		.loc 1 963 0
 2306 0dcc B94C     		ldr	r4, .L840
 2307 0dce DAF80030 		ldr	r3, [r10]
 2308              		.loc 1 964 0
 2309 0dd2 E218     		adds	r2, r4, r3
 2310              		.loc 1 963 0
 2311 0dd4 E054     		strb	r0, [r4, r3]
 2312              		.loc 1 964 0
 2313 0dd6 010A     		lsrs	r1, r0, #8
 2314 0dd8 0233     		adds	r3, r3, #2
 2315 0dda 5170     		strb	r1, [r2, #1]
 2316 0ddc CAF80030 		str	r3, [r10]
 2317              		.loc 1 965 0
 2318 0de0 FFF77ABB 		b	.L61
 2319              	.LVL129:
 2320              	.L78:
 2321              		.loc 1 1082 0
 2322 0de4 B9F1000F 		cmp	r9, #0
 2323 0de8 7FF465AA 		bne	.L60
 2324              		.loc 1 1084 0
 2325 0dec B24D     		ldr	r5, .L840+4
 2326 0dee B14C     		ldr	r4, .L840
 2327 0df0 C5F80090 		str	r9, [r5]
 2328 0df4 4846     		mov	r0, r9
 2329              	.L184:
 2330              		.loc 1 1086 0 discriminator 3
 2331 0df6 FFF7FEFF 		bl	get_ground_prox
 2332              	.LVL130:
 2333              		.loc 1 1087 0 discriminator 3
 2334 0dfa DAF80020 		ldr	r2, [r10]
 2335              		.loc 1 1084 0 discriminator 3
 2336 0dfe 2B68     		ldr	r3, [r5]
 2337              		.loc 1 1087 0 discriminator 3
ARM GAS  C:\Users\marwa\AppData\Local\Temp\ccNqFJyR.s 			page 42


 2338 0e00 A054     		strb	r0, [r4, r2]
 2339              		.loc 1 1088 0 discriminator 3
 2340 0e02 A618     		adds	r6, r4, r2
 2341 0e04 0112     		asrs	r1, r0, #8
 2342              		.loc 1 1084 0 discriminator 3
 2343 0e06 581C     		adds	r0, r3, #1
 2344              		.loc 1 1088 0 discriminator 3
 2345 0e08 0232     		adds	r2, r2, #2
 2346              		.loc 1 1084 0 discriminator 3
 2347 0e0a 0228     		cmp	r0, #2
 2348              		.loc 1 1088 0 discriminator 3
 2349 0e0c 7170     		strb	r1, [r6, #1]
 2350 0e0e CAF80020 		str	r2, [r10]
 2351              		.loc 1 1084 0 discriminator 3
 2352 0e12 2860     		str	r0, [r5]
 2353 0e14 EFDD     		ble	.L184
 2354              		.loc 1 1091 0
 2355 0e16 0320     		movs	r0, #3
 2356 0e18 2860     		str	r0, [r5]
 2357              	.L185:
 2358              		.loc 1 1093 0 discriminator 3
 2359 0e1a FFF7FEFF 		bl	get_ground_prox
 2360              	.LVL131:
 2361              		.loc 1 1094 0 discriminator 3
 2362 0e1e DAF80020 		ldr	r2, [r10]
 2363              		.loc 1 1091 0 discriminator 3
 2364 0e22 2B68     		ldr	r3, [r5]
 2365              		.loc 1 1094 0 discriminator 3
 2366 0e24 A054     		strb	r0, [r4, r2]
 2367              		.loc 1 1095 0 discriminator 3
 2368 0e26 A618     		adds	r6, r4, r2
 2369 0e28 0112     		asrs	r1, r0, #8
 2370              		.loc 1 1091 0 discriminator 3
 2371 0e2a 581C     		adds	r0, r3, #1
 2372              		.loc 1 1095 0 discriminator 3
 2373 0e2c 0232     		adds	r2, r2, #2
 2374              		.loc 1 1091 0 discriminator 3
 2375 0e2e 0328     		cmp	r0, #3
 2376              		.loc 1 1095 0 discriminator 3
 2377 0e30 7170     		strb	r1, [r6, #1]
 2378 0e32 CAF80020 		str	r2, [r10]
 2379              		.loc 1 1091 0 discriminator 3
 2380 0e36 2860     		str	r0, [r5]
 2381 0e38 EFDD     		ble	.L185
 2382 0e3a FFF750BB 		b	.L138
 2383              	.L77:
 2384              		.loc 1 1050 0
 2385 0e3e B9F1000F 		cmp	r9, #0
 2386 0e42 0FD1     		bne	.L176
 2387              		.loc 1 1053 0
 2388 0e44 079B     		ldr	r3, [sp, #28]
 2389              		.loc 1 1055 0
 2390 0e46 9D4C     		ldr	r4, .L840+8
 2391              		.loc 1 1053 0
 2392 0e48 002B     		cmp	r3, #0
 2393 0e4a 00F06682 		beq	.L177
 2394              	.L178:
ARM GAS  C:\Users\marwa\AppData\Local\Temp\ccNqFJyR.s 			page 43


 2395              		.loc 1 1055 0 discriminator 1
 2396 0e4e 2046     		mov	r0, r4
 2397 0e50 FFF7FEFF 		bl	e_getchar_uart1
 2398              	.LVL132:
 2399 0e54 0028     		cmp	r0, #0
 2400 0e56 FAD0     		beq	.L178
 2401              		.loc 1 1057 0
 2402 0e58 994C     		ldr	r4, .L840+12
 2403              	.L179:
 2404              		.loc 1 1057 0 is_stmt 0 discriminator 1
 2405 0e5a 2046     		mov	r0, r4
 2406 0e5c FFF7FEFF 		bl	e_getchar_uart1
 2407              	.LVL133:
 2408 0e60 0028     		cmp	r0, #0
 2409 0e62 FAD0     		beq	.L179
 2410              	.L176:
 2411              		.loc 1 1067 0 is_stmt 1
 2412 0e64 954B     		ldr	r3, .L840+8
 2413 0e66 964C     		ldr	r4, .L840+12
 2414 0e68 1B78     		ldrb	r3, [r3]	@ zero_extendqisi2
 2415 0e6a 2078     		ldrb	r0, [r4]	@ zero_extendqisi2
 2416 0e6c 082B     		cmp	r3, #8
 2417 0e6e 00F02483 		beq	.L182
 2418 0e72 092B     		cmp	r3, #9
 2419 0e74 41F0AE81 		bne	.L815
 2420              		.loc 1 1073 0
 2421 0e78 FFF7FEFF 		bl	e_set_front_led
 2422              	.LVL134:
 2423              		.loc 1 1074 0
 2424 0e7c FFF72CBB 		b	.L61
 2425              	.L76:
 2426              		.loc 1 1037 0
 2427 0e80 B9F1000F 		cmp	r9, #0
 2428 0e84 7FF417AA 		bne	.L60
 2429              		.loc 1 1037 0 is_stmt 0 discriminator 1
 2430 0e88 FFF7FEFF 		bl	get_object_found
 2431              	.LVL135:
 2432 0e8c 0028     		cmp	r0, #0
 2433 0e8e 40F0BE83 		bne	.L174
 2434              		.loc 1 1037 0 discriminator 2
 2435 0e92 FFF7FEFF 		bl	get_one_time
 2436              	.LVL136:
 2437 0e96 0028     		cmp	r0, #0
 2438 0e98 40F0B983 		bne	.L174
 2439              	.L175:
 2440              		.loc 1 1040 0 is_stmt 1
 2441 0e9c DAF80030 		ldr	r3, [r10]
 2442 0ea0 844C     		ldr	r4, .L840
 2443 0ea2 0333     		adds	r3, r3, #3
 2444 0ea4 E018     		adds	r0, r4, r3
 2445 0ea6 FFF7FEFF 		bl	e_poxxxx_launch_capture
 2446              	.LVL137:
 2447              		.loc 1 1042 0
 2448 0eaa 0C99     		ldr	r1, [sp, #48]
 2449 0eac DAF80030 		ldr	r3, [r10]
 2450 0eb0 0968     		ldr	r1, [r1]
 2451 0eb2 E154     		strb	r1, [r4, r3]
ARM GAS  C:\Users\marwa\AppData\Local\Temp\ccNqFJyR.s 			page 44


 2452              		.loc 1 1043 0
 2453 0eb4 0A99     		ldr	r1, [sp, #40]
 2454              		.loc 1 1046 0
 2455 0eb6 089A     		ldr	r2, [sp, #32]
 2456              		.loc 1 1043 0
 2457 0eb8 0968     		ldr	r1, [r1]
 2458              		.loc 1 1046 0
 2459 0eba 1268     		ldr	r2, [r2]
 2460              		.loc 1 1043 0
 2461 0ebc 1C44     		add	r4, r4, r3
 2462              		.loc 1 1044 0
 2463 0ebe 0333     		adds	r3, r3, #3
 2464              		.loc 1 1043 0
 2465 0ec0 6170     		strb	r1, [r4, #1]
 2466              		.loc 1 1044 0
 2467 0ec2 0B99     		ldr	r1, [sp, #44]
 2468 0ec4 0968     		ldr	r1, [r1]
 2469 0ec6 A170     		strb	r1, [r4, #2]
 2470              		.loc 1 1041 0
 2471 0ec8 7E49     		ldr	r1, .L840+16
 2472              		.loc 1 1046 0
 2473 0eca 1A44     		add	r2, r2, r3
 2474              		.loc 1 1041 0
 2475 0ecc 0120     		movs	r0, #1
 2476              		.loc 1 1045 0
 2477 0ece 9BB2     		uxth	r3, r3
 2478              		.loc 1 1046 0
 2479 0ed0 CAF80020 		str	r2, [r10]
 2480              		.loc 1 1045 0
 2481 0ed4 0993     		str	r3, [sp, #36]
 2482              	.LVL138:
 2483              		.loc 1 1041 0
 2484 0ed6 0870     		strb	r0, [r1]
 2485 0ed8 FFF701BB 		b	.L138
 2486              	.LVL139:
 2487              	.L75:
 2488              		.loc 1 1008 0
 2489 0edc 7A49     		ldr	r1, .L840+20
 2490              		.loc 1 1010 0
 2491 0ede 7B4A     		ldr	r2, .L840+24
 2492              		.loc 1 1008 0
 2493 0ee0 DAF80030 		ldr	r3, [r10]
 2494 0ee4 734C     		ldr	r4, .L840
 2495 0ee6 0968     		ldr	r1, [r1]
 2496              		.loc 1 1010 0
 2497 0ee8 1268     		ldr	r2, [r2]
 2498              		.loc 1 1008 0
 2499 0eea E154     		strb	r1, [r4, r3]
 2500              		.loc 1 1009 0
 2501 0eec 1C44     		add	r4, r4, r3
 2502 0eee 0912     		asrs	r1, r1, #8
 2503              		.loc 1 1011 0
 2504 0ef0 0433     		adds	r3, r3, #4
 2505 0ef2 1012     		asrs	r0, r2, #8
 2506              		.loc 1 1009 0
 2507 0ef4 6170     		strb	r1, [r4, #1]
 2508              		.loc 1 1011 0
ARM GAS  C:\Users\marwa\AppData\Local\Temp\ccNqFJyR.s 			page 45


 2509 0ef6 CAF80030 		str	r3, [r10]
 2510              		.loc 1 1010 0
 2511 0efa A270     		strb	r2, [r4, #2]
 2512              		.loc 1 1011 0
 2513 0efc E070     		strb	r0, [r4, #3]
 2514              		.loc 1 1012 0
 2515 0efe FFF7EBBA 		b	.L61
 2516              	.L74:
 2517              		.loc 1 968 0
 2518 0f02 B9F1000F 		cmp	r9, #0
 2519 0f06 00F07382 		beq	.L816
 2520              		.loc 1 985 0
 2521 0f0a 6D4C     		ldr	r4, .L840+12
 2522 0f0c 6B4B     		ldr	r3, .L840+8
 2523 0f0e 2178     		ldrb	r1, [r4]	@ zero_extendqisi2
 2524 0f10 1B78     		ldrb	r3, [r3]	@ zero_extendqisi2
 2525 0f12 6D4A     		ldr	r2, .L840+20
 2526 0f14 03EB0123 		add	r3, r3, r1, lsl #8
 2527 0f18 1360     		str	r3, [r2]
 2528              	.L170:
 2529              		.loc 1 1003 0
 2530 0f1a 6C4A     		ldr	r2, .L840+24
 2531 0f1c 1360     		str	r3, [r2]
 2532              		.loc 1 1006 0
 2533 0f1e FFF7DBBA 		b	.L61
 2534              	.L73:
 2535              		.loc 1 922 0
 2536 0f22 B9F1000F 		cmp	r9, #0
 2537 0f26 00F0CC82 		beq	.L817
 2538              		.loc 1 930 0
 2539 0f2a 0022     		movs	r2, #0
 2540              		.loc 1 928 0
 2541 0f2c 684B     		ldr	r3, .L840+28
 2542              		.loc 1 930 0
 2543 0f2e 0F92     		str	r2, [sp, #60]
 2544 0f30 CDE91222 		strd	r2, r2, [sp, #72]
 2545 0f34 CDE91022 		strd	r2, r2, [sp, #64]
 2546              		.loc 1 928 0
 2547 0f38 83ED008A 		vstr.32	s16, [r3]
 2548              		.loc 1 929 0
 2549 0f3c 83ED028A 		vstr.32	s16, [r3, #8]
 2550              		.loc 1 930 0
 2551 0f40 83ED018A 		vstr.32	s16, [r3, #4]
 2552 0f44 1546     		mov	r5, r2
 2553 0f46 1646     		mov	r6, r2
 2554 0f48 9446     		mov	ip, r2
 2555 0f4a 9646     		mov	lr, r2
 2556 0f4c 0E92     		str	r2, [sp, #56]
 2557 0f4e 1046     		mov	r0, r2
 2558              	.L157:
 2559              	.LVL140:
 2560              		.loc 1 933 0
 2561 0f50 DAF80010 		ldr	r1, [r10]
 2562 0f54 574C     		ldr	r4, .L840
 2563              		.loc 1 935 0
 2564 0f56 6318     		adds	r3, r4, r1
 2565              		.loc 1 933 0
ARM GAS  C:\Users\marwa\AppData\Local\Temp\ccNqFJyR.s 			page 46


 2566 0f58 6054     		strb	r0, [r4, r1]
 2567              	.LVL141:
 2568              		.loc 1 935 0
 2569 0f5a 9DF83800 		ldrb	r0, [sp, #56]	@ zero_extendqisi2
 2570 0f5e 5870     		strb	r0, [r3, #1]
 2571              	.LVL142:
 2572              		.loc 1 946 0
 2573 0f60 9DF83C00 		ldrb	r0, [sp, #60]	@ zero_extendqisi2
 2574 0f64 9871     		strb	r0, [r3, #6]
 2575              		.loc 1 948 0
 2576 0f66 9DF84000 		ldrb	r0, [sp, #64]	@ zero_extendqisi2
 2577 0f6a D871     		strb	r0, [r3, #7]
 2578              		.loc 1 951 0
 2579 0f6c 9DF84400 		ldrb	r0, [sp, #68]	@ zero_extendqisi2
 2580 0f70 1872     		strb	r0, [r3, #8]
 2581              		.loc 1 953 0
 2582 0f72 9DF84800 		ldrb	r0, [sp, #72]	@ zero_extendqisi2
 2583 0f76 5872     		strb	r0, [r3, #9]
 2584              		.loc 1 957 0
 2585 0f78 0C31     		adds	r1, r1, #12
 2586              		.loc 1 955 0
 2587 0f7a 9DF84C00 		ldrb	r0, [sp, #76]	@ zero_extendqisi2
 2588              		.loc 1 937 0
 2589 0f7e 83F802E0 		strb	lr, [r3, #2]
 2590              	.LVL143:
 2591              		.loc 1 939 0
 2592 0f82 83F803C0 		strb	ip, [r3, #3]
 2593              	.LVL144:
 2594              		.loc 1 942 0
 2595 0f86 1E71     		strb	r6, [r3, #4]
 2596              	.LVL145:
 2597              		.loc 1 944 0
 2598 0f88 5D71     		strb	r5, [r3, #5]
 2599              	.LVL146:
 2600              		.loc 1 955 0
 2601 0f8a 9872     		strb	r0, [r3, #10]
 2602              	.LVL147:
 2603              		.loc 1 957 0
 2604 0f8c DA72     		strb	r2, [r3, #11]
 2605 0f8e CAF80010 		str	r1, [r10]
 2606              		.loc 1 958 0
 2607 0f92 FFF7A1BA 		b	.L61
 2608              	.LVL148:
 2609              	.L72:
 2610              		.loc 1 858 0
 2611 0f96 B9F1000F 		cmp	r9, #0
 2612 0f9a 09D1     		bne	.L149
 2613              		.loc 1 861 0
 2614 0f9c 079B     		ldr	r3, [sp, #28]
 2615 0f9e 002B     		cmp	r3, #0
 2616 0fa0 01F06782 		beq	.L150
 2617              		.loc 1 863 0
 2618 0fa4 4B48     		ldr	r0, .L840+32
 2619 0fa6 0368     		ldr	r3, [r0]
 2620 0fa8 0122     		movs	r2, #1
 2621 0faa 5B68     		ldr	r3, [r3, #4]
 2622 0fac 14A9     		add	r1, sp, #80
ARM GAS  C:\Users\marwa\AppData\Local\Temp\ccNqFJyR.s 			page 47


 2623 0fae 9847     		blx	r3
 2624              	.LVL149:
 2625              	.L149:
 2626              		.loc 1 876 0
 2627 0fb0 FFF7FEFF 		bl	serial_get_last_errors
 2628              	.LVL150:
 2629 0fb4 C8B9     		cbnz	r0, .L144
 2630              		.loc 1 884 0
 2631 0fb6 9DF85030 		ldrb	r3, [sp, #80]	@ zero_extendqisi2
 2632 0fba 002B     		cmp	r3, #0
 2633 0fbc 41F01081 		bne	.L152
 2634              		.loc 1 886 0
 2635 0fc0 FFF7FEFF 		bl	VL53L0X_stop
 2636              	.LVL151:
 2637 0fc4 D1E4     		b	.L153
 2638              	.L71:
 2639              		.loc 1 817 0
 2640 0fc6 B9F1000F 		cmp	r9, #0
 2641 0fca 09D1     		bne	.L146
 2642              		.loc 1 820 0
 2643 0fcc 079B     		ldr	r3, [sp, #28]
 2644 0fce 002B     		cmp	r3, #0
 2645 0fd0 01F02D82 		beq	.L147
 2646              		.loc 1 822 0
 2647 0fd4 3F48     		ldr	r0, .L840+32
 2648 0fd6 0368     		ldr	r3, [r0]
 2649 0fd8 0122     		movs	r2, #1
 2650 0fda 5B68     		ldr	r3, [r3, #4]
 2651 0fdc 14A9     		add	r1, sp, #80
 2652 0fde 9847     		blx	r3
 2653              	.LVL152:
 2654              	.L146:
 2655              		.loc 1 835 0
 2656 0fe0 FFF7FEFF 		bl	serial_get_last_errors
 2657              	.LVL153:
 2658 0fe4 0028     		cmp	r0, #0
 2659 0fe6 3FF4CEAC 		beq	.L780
 2660              	.L144:
 2661              		.loc 1 585 0
 2662 0fea FFF7FEFF 		bl	serial_clear_last_errors
 2663              	.LVL154:
 2664              		.loc 1 586 0
 2665 0fee FFF773BA 		b	.L61
 2666              	.L82:
 2667              		.loc 1 1163 0
 2668 0ff2 FFF7FEFF 		bl	e_get_steps_left
 2669              	.LVL155:
 2670              		.loc 1 1164 0
 2671 0ff6 2F4C     		ldr	r4, .L840
 2672 0ff8 DAF80030 		ldr	r3, [r10]
 2673              		.loc 1 1165 0
 2674 0ffc E218     		adds	r2, r4, r3
 2675              		.loc 1 1164 0
 2676 0ffe E054     		strb	r0, [r4, r3]
 2677              		.loc 1 1165 0
 2678 1000 0112     		asrs	r1, r0, #8
 2679 1002 0233     		adds	r3, r3, #2
ARM GAS  C:\Users\marwa\AppData\Local\Temp\ccNqFJyR.s 			page 48


 2680 1004 5170     		strb	r1, [r2, #1]
 2681 1006 CAF80030 		str	r3, [r10]
 2682              		.loc 1 1166 0
 2683 100a FFF7FEFF 		bl	e_get_steps_right
 2684              	.LVL156:
 2685 100e 6BE4     		b	.L782
 2686              	.L84:
 2687              		.loc 1 1269 0
 2688 1010 B9F1000F 		cmp	r9, #0
 2689 1014 7FF44FA9 		bne	.L60
 2690              		.loc 1 1271 0
 2691 1018 079B     		ldr	r3, [sp, #28]
 2692              		.loc 1 1273 0
 2693 101a 2F4C     		ldr	r4, .L840+36
 2694              		.loc 1 1271 0
 2695 101c 002B     		cmp	r3, #0
 2696 101e 00F04082 		beq	.L223
 2697              	.L224:
 2698              		.loc 1 1273 0 discriminator 1
 2699 1022 2046     		mov	r0, r4
 2700 1024 FFF7FEFF 		bl	e_getchar_uart1
 2701              	.LVL157:
 2702 1028 0028     		cmp	r0, #0
 2703 102a FAD0     		beq	.L224
 2704              		.loc 1 1275 0
 2705 102c 2B4C     		ldr	r4, .L840+40
 2706              	.L225:
 2707              		.loc 1 1275 0 is_stmt 0 discriminator 1
 2708 102e 2046     		mov	r0, r4
 2709 1030 FFF7FEFF 		bl	e_getchar_uart1
 2710              	.LVL158:
 2711 1034 0028     		cmp	r0, #0
 2712 1036 FAD0     		beq	.L225
 2713              	.L226:
 2714              		.loc 1 1285 0 is_stmt 1
 2715 1038 FFF7FEFF 		bl	e_i2cp_enable
 2716              	.LVL159:
 2717              		.loc 1 1286 0
 2718 103c 274A     		ldr	r2, .L840+40
 2719 103e 264B     		ldr	r3, .L840+36
 2720 1040 1178     		ldrb	r1, [r2]	@ zero_extendqisi2
 2721 1042 1878     		ldrb	r0, [r3]	@ zero_extendqisi2
 2722 1044 264D     		ldr	r5, .L840+44
 2723              		.loc 1 1288 0
 2724 1046 1B4C     		ldr	r4, .L840
 2725              		.loc 1 1286 0
 2726 1048 FFF7FEFF 		bl	e_i2cp_read
 2727              	.LVL160:
 2728 104c 2860     		str	r0, [r5]
 2729              		.loc 1 1287 0
 2730 104e FFF7FEFF 		bl	e_i2cp_disable
 2731              	.LVL161:
 2732              		.loc 1 1288 0
 2733 1052 DAF80030 		ldr	r3, [r10]
 2734 1056 2A68     		ldr	r2, [r5]
 2735 1058 E254     		strb	r2, [r4, r3]
 2736 105a 0133     		adds	r3, r3, #1
ARM GAS  C:\Users\marwa\AppData\Local\Temp\ccNqFJyR.s 			page 49


 2737 105c CAF80030 		str	r3, [r10]
 2738 1060 FFF73DBA 		b	.L138
 2739              	.L83:
 2740              		.loc 1 1208 0
 2741 1064 B9F1000F 		cmp	r9, #0
 2742 1068 7FF425A9 		bne	.L60
 2743              		.loc 1 1210 0
 2744 106c 079B     		ldr	r3, [sp, #28]
 2745              		.loc 1 1212 0
 2746 106e 1A4C     		ldr	r4, .L840+36
 2747              		.loc 1 1210 0
 2748 1070 002B     		cmp	r3, #0
 2749 1072 00F00482 		beq	.L204
 2750              	.L205:
 2751              		.loc 1 1212 0 discriminator 1
 2752 1076 2046     		mov	r0, r4
 2753 1078 FFF7FEFF 		bl	e_getchar_uart1
 2754              	.LVL162:
 2755 107c 0028     		cmp	r0, #0
 2756 107e FAD0     		beq	.L205
 2757              		.loc 1 1214 0
 2758 1080 164C     		ldr	r4, .L840+40
 2759              	.L206:
 2760              		.loc 1 1214 0 is_stmt 0 discriminator 1
 2761 1082 2046     		mov	r0, r4
 2762 1084 FFF7FEFF 		bl	e_getchar_uart1
 2763              	.LVL163:
 2764 1088 0028     		cmp	r0, #0
 2765 108a FAD0     		beq	.L206
 2766              		.loc 1 1216 0 is_stmt 1
 2767 108c 144C     		ldr	r4, .L840+44
 2768              	.L207:
 2769              		.loc 1 1216 0 is_stmt 0 discriminator 1
 2770 108e 2046     		mov	r0, r4
 2771 1090 FFF7FEFF 		bl	e_getchar_uart1
 2772              	.LVL164:
 2773 1094 0028     		cmp	r0, #0
 2774 1096 FAD0     		beq	.L207
 2775              	.L208:
 2776              		.loc 1 1228 0 is_stmt 1
 2777 1098 FFF7FEFF 		bl	e_i2cp_enable
 2778              	.LVL165:
 2779              		.loc 1 1229 0
 2780 109c 104D     		ldr	r5, .L840+44
 2781 109e 0E4B     		ldr	r3, .L840+36
 2782 10a0 0E49     		ldr	r1, .L840+40
 2783 10a2 2A78     		ldrb	r2, [r5]	@ zero_extendqisi2
 2784 10a4 0978     		ldrb	r1, [r1]	@ zero_extendqisi2
 2785 10a6 1878     		ldrb	r0, [r3]	@ zero_extendqisi2
 2786 10a8 FFF7FEFF 		bl	e_i2cp_write
 2787              	.LVL166:
 2788              		.loc 1 1230 0
 2789 10ac FFF7FEFF 		bl	e_i2cp_disable
 2790              	.LVL167:
 2791 10b0 FFF715BA 		b	.L138
 2792              	.L841:
 2793              		.align	2
ARM GAS  C:\Users\marwa\AppData\Local\Temp\ccNqFJyR.s 			page 50


 2794              	.L840:
 2795 10b4 00000000 		.word	buffer
 2796 10b8 00000000 		.word	.LANCHOR18
 2797 10bc 00000000 		.word	.LANCHOR20
 2798 10c0 00000000 		.word	.LANCHOR21
 2799 10c4 00000000 		.word	.LANCHOR22
 2800 10c8 00000000 		.word	.LANCHOR8
 2801 10cc 00000000 		.word	.LANCHOR7
 2802 10d0 00000000 		.word	.LANCHOR14
 2803 10d4 00000000 		.word	SD3
 2804 10d8 00000000 		.word	.LANCHOR24
 2805 10dc 00000000 		.word	.LANCHOR25
 2806 10e0 00000000 		.word	.LANCHOR26
 2807              	.L85:
 2808              		.loc 1 898 0
 2809 10e4 B9F1000F 		cmp	r9, #0
 2810 10e8 00F03382 		beq	.L818
 2811              		.loc 1 909 0
 2812 10ec B44B     		ldr	r3, .L842
 2813              		.loc 1 910 0
 2814 10ee B548     		ldr	r0, .L842+4
 2815              		.loc 1 911 0
 2816 10f0 B549     		ldr	r1, .L842+8
 2817              		.loc 1 909 0
 2818 10f2 0022     		movs	r2, #0
 2819 10f4 1A60     		str	r2, [r3]
 2820              		.loc 1 910 0
 2821 10f6 0260     		str	r2, [r0]
 2822              		.loc 1 911 0
 2823 10f8 1346     		mov	r3, r2
 2824 10fa 0A60     		str	r2, [r1]
 2825 10fc 9446     		mov	ip, r2
 2826 10fe 1546     		mov	r5, r2
 2827 1100 9646     		mov	lr, r2
 2828 1102 1646     		mov	r6, r2
 2829 1104 1046     		mov	r0, r2
 2830              	.L155:
 2831              		.loc 1 913 0
 2832 1106 DAF80020 		ldr	r2, [r10]
 2833 110a B04C     		ldr	r4, .L842+12
 2834              		.loc 1 914 0
 2835 110c A118     		adds	r1, r4, r2
 2836              		.loc 1 913 0
 2837 110e A054     		strb	r0, [r4, r2]
 2838              		.loc 1 918 0
 2839 1110 0632     		adds	r2, r2, #6
 2840              		.loc 1 914 0
 2841 1112 4E70     		strb	r6, [r1, #1]
 2842              		.loc 1 915 0
 2843 1114 81F802E0 		strb	lr, [r1, #2]
 2844              		.loc 1 916 0
 2845 1118 CD70     		strb	r5, [r1, #3]
 2846              		.loc 1 917 0
 2847 111a 81F804C0 		strb	ip, [r1, #4]
 2848              		.loc 1 918 0
 2849 111e 4B71     		strb	r3, [r1, #5]
 2850 1120 CAF80020 		str	r2, [r10]
ARM GAS  C:\Users\marwa\AppData\Local\Temp\ccNqFJyR.s 			page 51


 2851              		.loc 1 919 0
 2852 1124 FFF7D8B9 		b	.L61
 2853              	.L80:
 2854              		.loc 1 1114 0
 2855 1128 A94D     		ldr	r5, .L842+16
 2856 112a A84C     		ldr	r4, .L842+12
 2857 112c 0020     		movs	r0, #0
 2858 112e 2860     		str	r0, [r5]
 2859              	.L188:
 2860              		.loc 1 1116 0 discriminator 3
 2861 1130 FFF7FEFF 		bl	e_get_ambient_light
 2862              	.LVL168:
 2863              		.loc 1 1117 0 discriminator 3
 2864 1134 DAF80020 		ldr	r2, [r10]
 2865              		.loc 1 1114 0 discriminator 3
 2866 1138 2B68     		ldr	r3, [r5]
 2867              		.loc 1 1117 0 discriminator 3
 2868 113a A054     		strb	r0, [r4, r2]
 2869              		.loc 1 1118 0 discriminator 3
 2870 113c A618     		adds	r6, r4, r2
 2871 113e 0112     		asrs	r1, r0, #8
 2872              		.loc 1 1114 0 discriminator 3
 2873 1140 581C     		adds	r0, r3, #1
 2874              		.loc 1 1118 0 discriminator 3
 2875 1142 0232     		adds	r2, r2, #2
 2876              		.loc 1 1114 0 discriminator 3
 2877 1144 0728     		cmp	r0, #7
 2878              		.loc 1 1118 0 discriminator 3
 2879 1146 7170     		strb	r1, [r6, #1]
 2880 1148 CAF80020 		str	r2, [r10]
 2881              		.loc 1 1114 0 discriminator 3
 2882 114c 2860     		str	r0, [r5]
 2883 114e EFDD     		ble	.L188
 2884 1150 FFF7C2B9 		b	.L61
 2885              	.L79:
 2886              		.loc 1 1106 0
 2887 1154 9E4D     		ldr	r5, .L842+16
 2888 1156 9D4C     		ldr	r4, .L842+12
 2889 1158 0020     		movs	r0, #0
 2890 115a 2860     		str	r0, [r5]
 2891              	.L186:
 2892              		.loc 1 1108 0 discriminator 3
 2893 115c FFF7FEFF 		bl	e_get_calibrated_prox
 2894              	.LVL169:
 2895              		.loc 1 1109 0 discriminator 3
 2896 1160 DAF80020 		ldr	r2, [r10]
 2897              		.loc 1 1106 0 discriminator 3
 2898 1164 2B68     		ldr	r3, [r5]
 2899              		.loc 1 1109 0 discriminator 3
 2900 1166 A054     		strb	r0, [r4, r2]
 2901              		.loc 1 1110 0 discriminator 3
 2902 1168 A618     		adds	r6, r4, r2
 2903 116a 0112     		asrs	r1, r0, #8
 2904              		.loc 1 1106 0 discriminator 3
 2905 116c 581C     		adds	r0, r3, #1
 2906              		.loc 1 1110 0 discriminator 3
 2907 116e 0232     		adds	r2, r2, #2
ARM GAS  C:\Users\marwa\AppData\Local\Temp\ccNqFJyR.s 			page 52


 2908              		.loc 1 1106 0 discriminator 3
 2909 1170 0728     		cmp	r0, #7
 2910              		.loc 1 1110 0 discriminator 3
 2911 1172 7170     		strb	r1, [r6, #1]
 2912 1174 CAF80020 		str	r2, [r10]
 2913              		.loc 1 1106 0 discriminator 3
 2914 1178 2860     		str	r0, [r5]
 2915 117a EFDD     		ble	.L186
 2916 117c FFF7ACB9 		b	.L61
 2917              	.L81:
 2918              		.loc 1 1123 0
 2919 1180 B9F1000F 		cmp	r9, #0
 2920 1184 00F0D580 		beq	.L819
 2921              		.loc 1 1140 0
 2922 1188 924C     		ldr	r4, .L842+20
 2923 118a 934B     		ldr	r3, .L842+24
 2924 118c 2178     		ldrb	r1, [r4]	@ zero_extendqisi2
 2925 118e 1B78     		ldrb	r3, [r3]	@ zero_extendqisi2
 2926 1190 924A     		ldr	r2, .L842+28
 2927 1192 03EB0123 		add	r3, r3, r1, lsl #8
 2928 1196 1360     		str	r3, [r2]
 2929              	.L201:
 2930              		.loc 1 1158 0
 2931 1198 914A     		ldr	r2, .L842+32
 2932 119a 1360     		str	r3, [r2]
 2933              		.loc 1 1161 0
 2934 119c FFF79CB9 		b	.L61
 2935              	.LVL170:
 2936              	.L802:
 2937              		.loc 1 209 0
 2938 11a0 FFF7FEFF 		bl	e_acc_calibr
 2939              	.LVL171:
 2940              		.loc 1 210 0
 2941 11a4 5821     		movs	r1, #88
 2942 11a6 8F48     		ldr	r0, .L842+36
 2943 11a8 FFF7FEFF 		bl	e_send_uart2_char
 2944              	.LVL172:
 2945              	.L21:
 2946              		.loc 1 210 0 is_stmt 0 discriminator 2
 2947 11ac FFF7FEFF 		bl	e_uart2_sending
 2948              	.LVL173:
 2949 11b0 0028     		cmp	r0, #0
 2950 11b2 FBD1     		bne	.L21
 2951 11b4 8046     		mov	r8, r0
 2952              	.LVL174:
 2953              		.loc 1 157 0 is_stmt 1
 2954 11b6 8346     		mov	fp, r0
 2955 11b8 FEF762BF 		b	.L20
 2956              	.LVL175:
 2957              	.L801:
 2958              		.loc 1 188 0
 2959 11bc FFF7FEFF 		bl	e_poxxxx_init_cam
 2960              	.LVL176:
 2961              		.loc 1 189 0
 2962 11c0 2D68     		ldr	r5, [r5]
 2963 11c2 3268     		ldr	r2, [r6]
 2964 11c4 3B68     		ldr	r3, [r7]
ARM GAS  C:\Users\marwa\AppData\Local\Temp\ccNqFJyR.s 			page 53


 2965 11c6 2468     		ldr	r4, [r4]
 2966 11c8 0294     		str	r4, [sp, #8]
 2967 11ca 02FB05F2 		mul	r2, r2, r5
 2968 11ce 03FB05F3 		mul	r3, r3, r5
 2969 11d2 C3F5F071 		rsb	r1, r3, #480
 2970 11d6 C2F52070 		rsb	r0, r2, #640
 2971 11da 01EBD171 		add	r1, r1, r1, lsr #31
 2972 11de 00EBD070 		add	r0, r0, r0, lsr #31
 2973 11e2 4910     		asrs	r1, r1, #1
 2974 11e4 0195     		str	r5, [sp, #4]
 2975 11e6 0095     		str	r5, [sp]
 2976 11e8 4010     		asrs	r0, r0, #1
 2977 11ea FFF7FEFF 		bl	e_poxxxx_config_cam
 2978              	.LVL177:
 2979              		.loc 1 190 0
 2980 11ee FFF7FEFF 		bl	e_poxxxx_write_cam_registers
 2981              	.LVL178:
 2982              		.loc 1 200 0
 2983 11f2 B8F1000F 		cmp	r8, #0
 2984 11f6 7FF47EAA 		bne	.L469
 2985 11fa D1E7     		b	.L802
 2986              	.LVL179:
 2987              	.L90:
 2988              		.loc 1 1234 0
 2989 11fc B9F1000F 		cmp	r9, #0
 2990 1200 7FF459A8 		bne	.L60
 2991              		.loc 1 1237 0
 2992 1204 724D     		ldr	r5, .L842+16
 2993 1206 714C     		ldr	r4, .L842+12
 2994              		.loc 1 1236 0
 2995 1208 FFF7FEFF 		bl	e_i2cp_enable
 2996              	.LVL180:
 2997              		.loc 1 1237 0
 2998 120c C5F80090 		str	r9, [r5]
 2999 1210 4846     		mov	r0, r9
 3000 1212 00E0     		b	.L212
 3001              	.L820:
 3002 1214 2868     		ldr	r0, [r5]
 3003              	.L212:
 3004              		.loc 1 1239 0 discriminator 1
 3005 1216 DAF80030 		ldr	r3, [r10]
 3006 121a 1844     		add	r0, r0, r3
 3007 121c 2044     		add	r0, r0, r4
 3008 121e FFF7FEFF 		bl	e_getchar_uart1
 3009              	.LVL181:
 3010 1222 0028     		cmp	r0, #0
 3011 1224 F6D0     		beq	.L820
 3012              		.loc 1 1237 0 discriminator 2
 3013 1226 2868     		ldr	r0, [r5]
 3014 1228 0130     		adds	r0, r0, #1
 3015 122a 1728     		cmp	r0, #23
 3016 122c 2860     		str	r0, [r5]
 3017 122e F2DD     		ble	.L212
 3018              		.loc 1 1242 0
 3019 1230 9220     		movs	r0, #146
 3020 1232 2860     		str	r0, [r5]
 3021 1234 00E0     		b	.L215
ARM GAS  C:\Users\marwa\AppData\Local\Temp\ccNqFJyR.s 			page 54


 3022              	.L821:
 3023 1236 2868     		ldr	r0, [r5]
 3024              	.L215:
 3025              		.loc 1 1244 0 discriminator 1
 3026 1238 DAF80030 		ldr	r3, [r10]
 3027 123c 1844     		add	r0, r0, r3
 3028 123e 7A38     		subs	r0, r0, #122
 3029 1240 2044     		add	r0, r0, r4
 3030 1242 FFF7FEFF 		bl	e_getchar_uart1
 3031              	.LVL182:
 3032 1246 0028     		cmp	r0, #0
 3033 1248 F5D0     		beq	.L821
 3034              		.loc 1 1242 0 discriminator 2
 3035 124a 2868     		ldr	r0, [r5]
 3036 124c 0130     		adds	r0, r0, #1
 3037 124e 9428     		cmp	r0, #148
 3038 1250 2860     		str	r0, [r5]
 3039 1252 F1DD     		ble	.L215
 3040              		.loc 1 1247 0
 3041 1254 A420     		movs	r0, #164
 3042 1256 2860     		str	r0, [r5]
 3043 1258 00E0     		b	.L218
 3044              	.L822:
 3045 125a 2868     		ldr	r0, [r5]
 3046              	.L218:
 3047              		.loc 1 1249 0 discriminator 1
 3048 125c DAF80030 		ldr	r3, [r10]
 3049 1260 1844     		add	r0, r0, r3
 3050 1262 8938     		subs	r0, r0, #137
 3051 1264 2044     		add	r0, r0, r4
 3052 1266 FFF7FEFF 		bl	e_getchar_uart1
 3053              	.LVL183:
 3054 126a 0028     		cmp	r0, #0
 3055 126c F5D0     		beq	.L822
 3056              		.loc 1 1247 0 discriminator 2
 3057 126e 2868     		ldr	r0, [r5]
 3058 1270 0130     		adds	r0, r0, #1
 3059 1272 AB28     		cmp	r0, #171
 3060 1274 2860     		str	r0, [r5]
 3061 1276 F1DD     		ble	.L218
 3062              		.loc 1 1252 0
 3063 1278 0021     		movs	r1, #0
 3064 127a 2960     		str	r1, [r5]
 3065              	.L220:
 3066              		.loc 1 1254 0 discriminator 3
 3067 127c DAF80030 		ldr	r3, [r10]
 3068 1280 6218     		adds	r2, r4, r1
 3069 1282 B020     		movs	r0, #176
 3070 1284 C9B2     		uxtb	r1, r1
 3071 1286 D25C     		ldrb	r2, [r2, r3]	@ zero_extendqisi2
 3072 1288 FFF7FEFF 		bl	e_i2cp_write
 3073              	.LVL184:
 3074              		.loc 1 1252 0 discriminator 3
 3075 128c 2968     		ldr	r1, [r5]
 3076 128e 0131     		adds	r1, r1, #1
 3077 1290 1729     		cmp	r1, #23
 3078 1292 2960     		str	r1, [r5]
ARM GAS  C:\Users\marwa\AppData\Local\Temp\ccNqFJyR.s 			page 55


 3079 1294 F2DD     		ble	.L220
 3080              		.loc 1 1256 0
 3081 1296 9221     		movs	r1, #146
 3082 1298 2960     		str	r1, [r5]
 3083              	.L221:
 3084              		.loc 1 1258 0 discriminator 3
 3085 129a DAF80020 		ldr	r2, [r10]
 3086 129e 6318     		adds	r3, r4, r1
 3087 12a0 1344     		add	r3, r3, r2
 3088 12a2 C9B2     		uxtb	r1, r1
 3089 12a4 13F87A2C 		ldrb	r2, [r3, #-122]	@ zero_extendqisi2
 3090 12a8 B020     		movs	r0, #176
 3091 12aa FFF7FEFF 		bl	e_i2cp_write
 3092              	.LVL185:
 3093              		.loc 1 1256 0 discriminator 3
 3094 12ae 2968     		ldr	r1, [r5]
 3095 12b0 0131     		adds	r1, r1, #1
 3096 12b2 9429     		cmp	r1, #148
 3097 12b4 2960     		str	r1, [r5]
 3098 12b6 F0DD     		ble	.L221
 3099              		.loc 1 1260 0
 3100 12b8 A421     		movs	r1, #164
 3101 12ba 2960     		str	r1, [r5]
 3102              	.L222:
 3103              		.loc 1 1262 0 discriminator 3
 3104 12bc DAF80020 		ldr	r2, [r10]
 3105 12c0 6318     		adds	r3, r4, r1
 3106 12c2 1344     		add	r3, r3, r2
 3107 12c4 C9B2     		uxtb	r1, r1
 3108 12c6 13F8892C 		ldrb	r2, [r3, #-137]	@ zero_extendqisi2
 3109 12ca B020     		movs	r0, #176
 3110 12cc FFF7FEFF 		bl	e_i2cp_write
 3111              	.LVL186:
 3112              		.loc 1 1260 0 discriminator 3
 3113 12d0 2968     		ldr	r1, [r5]
 3114 12d2 0131     		adds	r1, r1, #1
 3115 12d4 AB29     		cmp	r1, #171
 3116 12d6 2960     		str	r1, [r5]
 3117 12d8 F0DD     		ble	.L222
 3118              		.loc 1 1264 0
 3119 12da 0122     		movs	r2, #1
 3120 12dc 9121     		movs	r1, #145
 3121 12de B020     		movs	r0, #176
 3122 12e0 FFF7FEFF 		bl	e_i2cp_write
 3123              	.LVL187:
 3124              		.loc 1 1265 0
 3125 12e4 FFF7FEFF 		bl	e_i2cp_disable
 3126              	.LVL188:
 3127 12e8 FFF7F9B8 		b	.L138
 3128              	.LVL189:
 3129              	.L28:
 3130              		.loc 1 278 0
 3131 12ec 3E4A     		ldr	r2, .L842+40
 3132 12ee 3F4F     		ldr	r7, .L842+44
 3133 12f0 0023     		movs	r3, #0
 3134 12f2 1360     		str	r3, [r2]
 3135 12f4 3B60     		str	r3, [r7]
ARM GAS  C:\Users\marwa\AppData\Local\Temp\ccNqFJyR.s 			page 56


 3136 12f6 FFF75FBA 		b	.L40
 3137              	.L44:
 3138              		.loc 1 345 0
 3139 12fa 3B4A     		ldr	r2, .L842+40
 3140 12fc 3B4F     		ldr	r7, .L842+44
 3141 12fe 0023     		movs	r3, #0
 3142 1300 1360     		str	r3, [r2]
 3143 1302 3B60     		str	r3, [r7]
 3144 1304 FEF7F3BE 		b	.L56
 3145              	.LVL190:
 3146              	.L798:
 3147              		.loc 1 1331 0
 3148 1308 3048     		ldr	r0, .L842+12
 3149 130a FFF7FEFF 		bl	e_send_uart2_char
 3150              	.LVL191:
 3151              	.L233:
 3152              		.loc 1 1332 0 discriminator 1
 3153 130e FFF7FEFF 		bl	e_uart2_sending
 3154              	.LVL192:
 3155 1312 0028     		cmp	r0, #0
 3156 1314 FBD1     		bne	.L233
 3157 1316 FEF7B9BE 		b	.L18
 3158              	.L177:
 3159              		.loc 1 1062 0 discriminator 1
 3160 131a 2046     		mov	r0, r4
 3161 131c FFF7FEFF 		bl	e_getchar_uart2
 3162              	.LVL193:
 3163 1320 0028     		cmp	r0, #0
 3164 1322 FAD0     		beq	.L177
 3165              		.loc 1 1064 0
 3166 1324 2B4C     		ldr	r4, .L842+20
 3167              	.L180:
 3168              		.loc 1 1064 0 is_stmt 0 discriminator 1
 3169 1326 2046     		mov	r0, r4
 3170 1328 FFF7FEFF 		bl	e_getchar_uart2
 3171              	.LVL194:
 3172 132c 0028     		cmp	r0, #0
 3173 132e FAD0     		beq	.L180
 3174 1330 98E5     		b	.L176
 3175              	.L819:
 3176              		.loc 1 1126 0 is_stmt 1
 3177 1332 079B     		ldr	r3, [sp, #28]
 3178              		.loc 1 1128 0
 3179 1334 284C     		ldr	r4, .L842+24
 3180              		.loc 1 1126 0
 3181 1336 1BB3     		cbz	r3, .L190
 3182              	.L191:
 3183              		.loc 1 1128 0 discriminator 1
 3184 1338 2046     		mov	r0, r4
 3185 133a FFF7FEFF 		bl	e_getchar_uart1
 3186              	.LVL195:
 3187 133e 0028     		cmp	r0, #0
 3188 1340 FAD0     		beq	.L191
 3189 1342 244C     		ldr	r4, .L842+20
 3190              		.loc 1 1130 0
 3191 1344 2546     		mov	r5, r4
 3192              	.L192:
ARM GAS  C:\Users\marwa\AppData\Local\Temp\ccNqFJyR.s 			page 57


 3193              		.loc 1 1130 0 is_stmt 0 discriminator 1
 3194 1346 2846     		mov	r0, r5
 3195 1348 FFF7FEFF 		bl	e_getchar_uart1
 3196              	.LVL196:
 3197 134c 0028     		cmp	r0, #0
 3198 134e FAD0     		beq	.L192
 3199              		.loc 1 1140 0 is_stmt 1
 3200 1350 214D     		ldr	r5, .L842+24
 3201 1352 2178     		ldrb	r1, [r4]	@ zero_extendqisi2
 3202 1354 2B78     		ldrb	r3, [r5]	@ zero_extendqisi2
 3203 1356 214A     		ldr	r2, .L842+28
 3204 1358 03EB0123 		add	r3, r3, r1, lsl #8
 3205 135c 1360     		str	r3, [r2]
 3206              		.loc 1 1146 0
 3207 135e 2E46     		mov	r6, r5
 3208              	.L196:
 3209              		.loc 1 1146 0 is_stmt 0 discriminator 1
 3210 1360 3046     		mov	r0, r6
 3211 1362 FFF7FEFF 		bl	e_getchar_uart1
 3212              	.LVL197:
 3213 1366 0028     		cmp	r0, #0
 3214 1368 FAD0     		beq	.L196
 3215              		.loc 1 1148 0 is_stmt 1
 3216 136a 1A4E     		ldr	r6, .L842+20
 3217              	.L197:
 3218              		.loc 1 1148 0 is_stmt 0 discriminator 1
 3219 136c 3046     		mov	r0, r6
 3220 136e FFF7FEFF 		bl	e_getchar_uart1
 3221              	.LVL198:
 3222 1372 0028     		cmp	r0, #0
 3223 1374 FAD0     		beq	.L197
 3224              	.L754:
 3225 1376 2278     		ldrb	r2, [r4]	@ zero_extendqisi2
 3226 1378 2B78     		ldrb	r3, [r5]	@ zero_extendqisi2
 3227 137a 03EB0223 		add	r3, r3, r2, lsl #8
 3228 137e 0BE7     		b	.L201
 3229              	.L190:
 3230              		.loc 1 1135 0 is_stmt 1 discriminator 1
 3231 1380 2046     		mov	r0, r4
 3232 1382 FFF7FEFF 		bl	e_getchar_uart2
 3233              	.LVL199:
 3234 1386 0028     		cmp	r0, #0
 3235 1388 FAD0     		beq	.L190
 3236 138a 124C     		ldr	r4, .L842+20
 3237              		.loc 1 1137 0
 3238 138c 2546     		mov	r5, r4
 3239              	.L194:
 3240              		.loc 1 1137 0 is_stmt 0 discriminator 1
 3241 138e 2846     		mov	r0, r5
 3242 1390 FFF7FEFF 		bl	e_getchar_uart2
 3243              	.LVL200:
 3244 1394 0028     		cmp	r0, #0
 3245 1396 FAD0     		beq	.L194
 3246              		.loc 1 1140 0 is_stmt 1
 3247 1398 0F4D     		ldr	r5, .L842+24
 3248 139a 2178     		ldrb	r1, [r4]	@ zero_extendqisi2
 3249 139c 2B78     		ldrb	r3, [r5]	@ zero_extendqisi2
ARM GAS  C:\Users\marwa\AppData\Local\Temp\ccNqFJyR.s 			page 58


 3250 139e 0F4A     		ldr	r2, .L842+28
 3251 13a0 03EB0123 		add	r3, r3, r1, lsl #8
 3252 13a4 1360     		str	r3, [r2]
 3253              		.loc 1 1153 0
 3254 13a6 2E46     		mov	r6, r5
 3255              	.L199:
 3256              		.loc 1 1153 0 is_stmt 0 discriminator 1
 3257 13a8 3046     		mov	r0, r6
 3258 13aa FFF7FEFF 		bl	e_getchar_uart2
 3259              	.LVL201:
 3260 13ae 0028     		cmp	r0, #0
 3261 13b0 FAD0     		beq	.L199
 3262              		.loc 1 1155 0 is_stmt 1
 3263 13b2 084E     		ldr	r6, .L842+20
 3264              	.L200:
 3265              		.loc 1 1155 0 is_stmt 0 discriminator 1
 3266 13b4 3046     		mov	r0, r6
 3267 13b6 FFF7FEFF 		bl	e_getchar_uart2
 3268              	.LVL202:
 3269 13ba 0028     		cmp	r0, #0
 3270 13bc FAD0     		beq	.L200
 3271 13be DAE7     		b	.L754
 3272              	.L843:
 3273              		.align	2
 3274              	.L842:
 3275 13c0 00000000 		.word	.LANCHOR11
 3276 13c4 00000000 		.word	.LANCHOR12
 3277 13c8 00000000 		.word	.LANCHOR13
 3278 13cc 00000000 		.word	buffer
 3279 13d0 00000000 		.word	.LANCHOR18
 3280 13d4 00000000 		.word	.LANCHOR21
 3281 13d8 00000000 		.word	.LANCHOR20
 3282 13dc 00000000 		.word	.LANCHOR31
 3283 13e0 00000000 		.word	.LANCHOR23
 3284 13e4 00000000 		.word	.LC0
 3285 13e8 00000000 		.word	.LANCHOR8
 3286 13ec 00000000 		.word	.LANCHOR7
 3287              	.L816:
 3288              		.loc 1 971 0 is_stmt 1
 3289 13f0 079B     		ldr	r3, [sp, #28]
 3290              		.loc 1 973 0
 3291 13f2 B54C     		ldr	r4, .L844
 3292              		.loc 1 971 0
 3293 13f4 1BB3     		cbz	r3, .L159
 3294              	.L160:
 3295              		.loc 1 973 0 discriminator 1
 3296 13f6 2046     		mov	r0, r4
 3297 13f8 FFF7FEFF 		bl	e_getchar_uart1
 3298              	.LVL203:
 3299 13fc 0028     		cmp	r0, #0
 3300 13fe FAD0     		beq	.L160
 3301 1400 B24C     		ldr	r4, .L844+4
 3302              		.loc 1 975 0
 3303 1402 2546     		mov	r5, r4
 3304              	.L161:
 3305              		.loc 1 975 0 is_stmt 0 discriminator 1
 3306 1404 2846     		mov	r0, r5
ARM GAS  C:\Users\marwa\AppData\Local\Temp\ccNqFJyR.s 			page 59


 3307 1406 FFF7FEFF 		bl	e_getchar_uart1
 3308              	.LVL204:
 3309 140a 0028     		cmp	r0, #0
 3310 140c FAD0     		beq	.L161
 3311              		.loc 1 985 0 is_stmt 1
 3312 140e AE4D     		ldr	r5, .L844
 3313 1410 2178     		ldrb	r1, [r4]	@ zero_extendqisi2
 3314 1412 2B78     		ldrb	r3, [r5]	@ zero_extendqisi2
 3315 1414 AE4A     		ldr	r2, .L844+8
 3316 1416 03EB0123 		add	r3, r3, r1, lsl #8
 3317 141a 1360     		str	r3, [r2]
 3318              		.loc 1 991 0
 3319 141c 2E46     		mov	r6, r5
 3320              	.L165:
 3321              		.loc 1 991 0 is_stmt 0 discriminator 1
 3322 141e 3046     		mov	r0, r6
 3323 1420 FFF7FEFF 		bl	e_getchar_uart1
 3324              	.LVL205:
 3325 1424 0028     		cmp	r0, #0
 3326 1426 FAD0     		beq	.L165
 3327              		.loc 1 993 0 is_stmt 1
 3328 1428 A84E     		ldr	r6, .L844+4
 3329              	.L166:
 3330              		.loc 1 993 0 is_stmt 0 discriminator 1
 3331 142a 3046     		mov	r0, r6
 3332 142c FFF7FEFF 		bl	e_getchar_uart1
 3333              	.LVL206:
 3334 1430 0028     		cmp	r0, #0
 3335 1432 FAD0     		beq	.L166
 3336              	.L749:
 3337 1434 2278     		ldrb	r2, [r4]	@ zero_extendqisi2
 3338 1436 2B78     		ldrb	r3, [r5]	@ zero_extendqisi2
 3339 1438 03EB0223 		add	r3, r3, r2, lsl #8
 3340 143c 6DE5     		b	.L170
 3341              	.L159:
 3342              		.loc 1 980 0 is_stmt 1 discriminator 1
 3343 143e 2046     		mov	r0, r4
 3344 1440 FFF7FEFF 		bl	e_getchar_uart2
 3345              	.LVL207:
 3346 1444 0028     		cmp	r0, #0
 3347 1446 FAD0     		beq	.L159
 3348 1448 A04C     		ldr	r4, .L844+4
 3349              		.loc 1 982 0
 3350 144a 2546     		mov	r5, r4
 3351              	.L163:
 3352              		.loc 1 982 0 is_stmt 0 discriminator 1
 3353 144c 2846     		mov	r0, r5
 3354 144e FFF7FEFF 		bl	e_getchar_uart2
 3355              	.LVL208:
 3356 1452 0028     		cmp	r0, #0
 3357 1454 FAD0     		beq	.L163
 3358              		.loc 1 985 0 is_stmt 1
 3359 1456 9C4D     		ldr	r5, .L844
 3360 1458 2178     		ldrb	r1, [r4]	@ zero_extendqisi2
 3361 145a 2B78     		ldrb	r3, [r5]	@ zero_extendqisi2
 3362 145c 9C4A     		ldr	r2, .L844+8
 3363 145e 03EB0123 		add	r3, r3, r1, lsl #8
ARM GAS  C:\Users\marwa\AppData\Local\Temp\ccNqFJyR.s 			page 60


 3364 1462 1360     		str	r3, [r2]
 3365              		.loc 1 998 0
 3366 1464 2E46     		mov	r6, r5
 3367              	.L168:
 3368              		.loc 1 998 0 is_stmt 0 discriminator 1
 3369 1466 3046     		mov	r0, r6
 3370 1468 FFF7FEFF 		bl	e_getchar_uart2
 3371              	.LVL209:
 3372 146c 0028     		cmp	r0, #0
 3373 146e FAD0     		beq	.L168
 3374              		.loc 1 1000 0 is_stmt 1
 3375 1470 964E     		ldr	r6, .L844+4
 3376              	.L169:
 3377              		.loc 1 1000 0 is_stmt 0 discriminator 1
 3378 1472 3046     		mov	r0, r6
 3379 1474 FFF7FEFF 		bl	e_getchar_uart2
 3380              	.LVL210:
 3381 1478 0028     		cmp	r0, #0
 3382 147a FAD0     		beq	.L169
 3383 147c DAE7     		b	.L749
 3384              	.L204:
 3385              		.loc 1 1221 0 is_stmt 1 discriminator 1
 3386 147e 2046     		mov	r0, r4
 3387 1480 FFF7FEFF 		bl	e_getchar_uart2
 3388              	.LVL211:
 3389 1484 0028     		cmp	r0, #0
 3390 1486 FAD0     		beq	.L204
 3391              		.loc 1 1223 0
 3392 1488 924C     		ldr	r4, .L844+12
 3393              	.L209:
 3394              		.loc 1 1223 0 is_stmt 0 discriminator 1
 3395 148a 2046     		mov	r0, r4
 3396 148c FFF7FEFF 		bl	e_getchar_uart2
 3397              	.LVL212:
 3398 1490 0028     		cmp	r0, #0
 3399 1492 FAD0     		beq	.L209
 3400              		.loc 1 1225 0 is_stmt 1
 3401 1494 904C     		ldr	r4, .L844+16
 3402              	.L210:
 3403              		.loc 1 1225 0 is_stmt 0 discriminator 1
 3404 1496 2046     		mov	r0, r4
 3405 1498 FFF7FEFF 		bl	e_getchar_uart2
 3406              	.LVL213:
 3407 149c 0028     		cmp	r0, #0
 3408 149e FAD0     		beq	.L210
 3409 14a0 FAE5     		b	.L208
 3410              	.L223:
 3411              		.loc 1 1280 0 is_stmt 1 discriminator 1
 3412 14a2 2046     		mov	r0, r4
 3413 14a4 FFF7FEFF 		bl	e_getchar_uart2
 3414              	.LVL214:
 3415 14a8 0028     		cmp	r0, #0
 3416 14aa FAD0     		beq	.L223
 3417              		.loc 1 1282 0
 3418 14ac 894C     		ldr	r4, .L844+12
 3419              	.L227:
 3420              		.loc 1 1282 0 is_stmt 0 discriminator 1
ARM GAS  C:\Users\marwa\AppData\Local\Temp\ccNqFJyR.s 			page 61


 3421 14ae 2046     		mov	r0, r4
 3422 14b0 FFF7FEFF 		bl	e_getchar_uart2
 3423              	.LVL215:
 3424 14b4 0028     		cmp	r0, #0
 3425 14b6 FAD0     		beq	.L227
 3426 14b8 BEE5     		b	.L226
 3427              	.L182:
 3428              		.loc 1 1070 0 is_stmt 1
 3429 14ba FFF7FEFF 		bl	e_set_body_led
 3430              	.LVL216:
 3431              		.loc 1 1071 0
 3432 14be FFF70BB8 		b	.L61
 3433              	.L817:
 3434              		.loc 1 924 0
 3435 14c2 FFF7FEFF 		bl	e_read_acc_spheric
 3436              	.LVL217:
 3437 14c6 854B     		ldr	r3, .L844+20
 3438 14c8 83ED000A 		vstr.32	s0, [r3]
 3439 14cc 1A78     		ldrb	r2, [r3]	@ zero_extendqisi2
 3440 14ce C3ED010A 		vstr.32	s1, [r3, #4]
 3441 14d2 1046     		mov	r0, r2
 3442 14d4 5A78     		ldrb	r2, [r3, #1]	@ zero_extendqisi2
 3443 14d6 0E92     		str	r2, [sp, #56]
 3444 14d8 9A79     		ldrb	r2, [r3, #6]	@ zero_extendqisi2
 3445 14da 83ED021A 		vstr.32	s2, [r3, #8]
 3446 14de 0F92     		str	r2, [sp, #60]
 3447 14e0 DA79     		ldrb	r2, [r3, #7]	@ zero_extendqisi2
 3448 14e2 1092     		str	r2, [sp, #64]
 3449 14e4 1A7A     		ldrb	r2, [r3, #8]	@ zero_extendqisi2
 3450 14e6 1192     		str	r2, [sp, #68]
 3451 14e8 5A7A     		ldrb	r2, [r3, #9]	@ zero_extendqisi2
 3452 14ea 1292     		str	r2, [sp, #72]
 3453 14ec 9A7A     		ldrb	r2, [r3, #10]	@ zero_extendqisi2
 3454 14ee 1392     		str	r2, [sp, #76]
 3455 14f0 93F802E0 		ldrb	lr, [r3, #2]	@ zero_extendqisi2
 3456 14f4 93F803C0 		ldrb	ip, [r3, #3]	@ zero_extendqisi2
 3457 14f8 1E79     		ldrb	r6, [r3, #4]	@ zero_extendqisi2
 3458 14fa 5D79     		ldrb	r5, [r3, #5]	@ zero_extendqisi2
 3459 14fc DA7A     		ldrb	r2, [r3, #11]	@ zero_extendqisi2
 3460 14fe 27E5     		b	.L157
 3461              	.L805:
 3462              		.loc 1 1017 0
 3463 1500 774D     		ldr	r5, .L844+24
 3464 1502 784E     		ldr	r6, .L844+28
 3465 1504 7848     		ldr	r0, .L844+32
 3466              		.loc 1 1018 0
 3467 1506 794C     		ldr	r4, .L844+36
 3468              		.loc 1 1017 0
 3469 1508 2A46     		mov	r2, r5
 3470 150a 3146     		mov	r1, r6
 3471 150c FFF7FEFF 		bl	getAllAxesGyro
 3472              	.LVL218:
 3473              		.loc 1 1018 0
 3474 1510 754A     		ldr	r2, .L844+32
 3475 1512 DAF80030 		ldr	r3, [r10]
 3476 1516 1268     		ldr	r2, [r2]
 3477              		.loc 1 1020 0
ARM GAS  C:\Users\marwa\AppData\Local\Temp\ccNqFJyR.s 			page 62


 3478 1518 3068     		ldr	r0, [r6]
 3479              		.loc 1 1022 0
 3480 151a 2968     		ldr	r1, [r5]
 3481              		.loc 1 1018 0
 3482 151c E254     		strb	r2, [r4, r3]
 3483              		.loc 1 1019 0
 3484 151e 1C44     		add	r4, r4, r3
 3485 1520 1212     		asrs	r2, r2, #8
 3486              		.loc 1 1021 0
 3487 1522 0612     		asrs	r6, r0, #8
 3488              		.loc 1 1023 0
 3489 1524 0633     		adds	r3, r3, #6
 3490 1526 0D12     		asrs	r5, r1, #8
 3491              		.loc 1 1019 0
 3492 1528 6270     		strb	r2, [r4, #1]
 3493              		.loc 1 1020 0
 3494 152a A070     		strb	r0, [r4, #2]
 3495              		.loc 1 1021 0
 3496 152c E670     		strb	r6, [r4, #3]
 3497              		.loc 1 1022 0
 3498 152e 2171     		strb	r1, [r4, #4]
 3499              		.loc 1 1023 0
 3500 1530 6571     		strb	r5, [r4, #5]
 3501 1532 CAF80030 		str	r3, [r10]
 3502 1536 FEF7D2BF 		b	.L138
 3503              	.L202:
 3504              		.loc 1 1178 0
 3505 153a FFF7FEFF 		bl	getTemperature
 3506              	.LVL219:
 3507 153e 6B4C     		ldr	r4, .L844+36
 3508 1540 DAF80020 		ldr	r2, [r10]
 3509 1544 3B78     		ldrb	r3, [r7]	@ zero_extendqisi2
 3510 1546 A054     		strb	r0, [r4, r2]
 3511 1548 0132     		adds	r2, r2, #1
 3512 154a CAF80020 		str	r2, [r10]
 3513 154e FEF7CEBF 		b	.L203
 3514              	.L818:
 3515              		.loc 1 900 0
 3516 1552 0121     		movs	r1, #1
 3517 1554 4846     		mov	r0, r9
 3518 1556 FFF7FEFF 		bl	e_get_acc_filtered
 3519              	.LVL220:
 3520 155a 654D     		ldr	r5, .L844+40
 3521              		.loc 1 901 0
 3522 155c 654C     		ldr	r4, .L844+44
 3523              		.loc 1 900 0
 3524 155e 2860     		str	r0, [r5]
 3525              		.loc 1 901 0
 3526 1560 0121     		movs	r1, #1
 3527 1562 0846     		mov	r0, r1
 3528 1564 FFF7FEFF 		bl	e_get_acc_filtered
 3529              	.LVL221:
 3530              		.loc 1 902 0
 3531 1568 0121     		movs	r1, #1
 3532              		.loc 1 901 0
 3533 156a 2060     		str	r0, [r4]
 3534              		.loc 1 902 0
ARM GAS  C:\Users\marwa\AppData\Local\Temp\ccNqFJyR.s 			page 63


 3535 156c 0220     		movs	r0, #2
 3536 156e FFF7FEFF 		bl	e_get_acc_filtered
 3537              	.LVL222:
 3538 1572 2E68     		ldr	r6, [r5]
 3539 1574 604B     		ldr	r3, .L844+48
 3540 1576 2568     		ldr	r5, [r4]
 3541 1578 0246     		mov	r2, r0
 3542 157a 1A60     		str	r2, [r3]
 3543 157c F0B2     		uxtb	r0, r6
 3544 157e 5FFA85FE 		uxtb	lr, r5
 3545 1582 C6F30726 		ubfx	r6, r6, #8, #8
 3546 1586 C5F30725 		ubfx	r5, r5, #8, #8
 3547 158a 5FFA82FC 		uxtb	ip, r2
 3548 158e C2F30723 		ubfx	r3, r2, #8, #8
 3549 1592 B8E5     		b	.L155
 3550              	.L809:
 3551              		.loc 1 368 0
 3552 1594 4846     		mov	r0, r9
 3553 1596 FFF7FEFF 		bl	e_get_acc
 3554              	.LVL223:
 3555 159a 554D     		ldr	r5, .L844+40
 3556              		.loc 1 369 0
 3557 159c 554C     		ldr	r4, .L844+44
 3558              		.loc 1 368 0
 3559 159e 2860     		str	r0, [r5]
 3560              		.loc 1 369 0
 3561 15a0 0120     		movs	r0, #1
 3562 15a2 FFF7FEFF 		bl	e_get_acc
 3563              	.LVL224:
 3564 15a6 2060     		str	r0, [r4]
 3565              		.loc 1 370 0
 3566 15a8 0220     		movs	r0, #2
 3567 15aa FFF7FEFF 		bl	e_get_acc
 3568              	.LVL225:
 3569 15ae 2E68     		ldr	r6, [r5]
 3570 15b0 514B     		ldr	r3, .L844+48
 3571 15b2 2568     		ldr	r5, [r4]
 3572 15b4 0246     		mov	r2, r0
 3573 15b6 1A60     		str	r2, [r3]
 3574 15b8 F0B2     		uxtb	r0, r6
 3575 15ba 5FFA85FE 		uxtb	lr, r5
 3576 15be C6F30726 		ubfx	r6, r6, #8, #8
 3577 15c2 C5F30725 		ubfx	r5, r5, #8, #8
 3578 15c6 5FFA82FC 		uxtb	ip, r2
 3579 15ca C2F30723 		ubfx	r3, r2, #8, #8
 3580 15ce FFF74EBA 		b	.L92
 3581              	.L808:
 3582              		.loc 1 752 0
 3583 15d2 FFF7FEFF 		bl	VL53L0X_get_dist_mm
 3584              	.LVL226:
 3585              		.loc 1 753 0
 3586 15d6 454C     		ldr	r4, .L844+36
 3587 15d8 DAF80030 		ldr	r3, [r10]
 3588              		.loc 1 754 0
 3589 15dc E218     		adds	r2, r4, r3
 3590              		.loc 1 753 0
 3591 15de E054     		strb	r0, [r4, r3]
ARM GAS  C:\Users\marwa\AppData\Local\Temp\ccNqFJyR.s 			page 64


 3592              		.loc 1 754 0
 3593 15e0 0112     		asrs	r1, r0, #8
 3594 15e2 0233     		adds	r3, r3, #2
 3595 15e4 5170     		strb	r1, [r2, #1]
 3596 15e6 CAF80030 		str	r3, [r10]
 3597 15ea FEF778BF 		b	.L138
 3598              	.L807:
 3599              		.loc 1 766 0
 3600 15ee FFF7FEFF 		bl	sdio_connect
 3601              	.LVL227:
 3602              		.loc 1 767 0
 3603 15f2 DAF80030 		ldr	r3, [r10]
 3604 15f6 3D4C     		ldr	r4, .L844+36
 3605              		.loc 1 766 0
 3606 15f8 B0FA80F0 		clz	r0, r0
 3607              		.loc 1 767 0
 3608 15fc 5A1C     		adds	r2, r3, #1
 3609              		.loc 1 766 0
 3610 15fe 4009     		lsrs	r0, r0, #5
 3611 1600 E054     		strb	r0, [r4, r3]
 3612              		.loc 1 767 0
 3613 1602 CAF80020 		str	r2, [r10]
 3614              		.loc 1 768 0
 3615 1606 FFF7FEFF 		bl	sdio_disconnect
 3616              	.LVL228:
 3617 160a FEF765BF 		b	.L61
 3618              	.L174:
 3619              		.loc 1 1038 0
 3620 160e FFF7FEFF 		bl	get_object_found
 3621              	.LVL229:
 3622              		.loc 1 1037 0
 3623 1612 0028     		cmp	r0, #0
 3624 1614 7EF463AF 		bne	.L138
 3625              		.loc 1 1038 0
 3626 1618 FFF7FEFF 		bl	get_demo15_state_1
 3627              	.LVL230:
 3628 161c 0028     		cmp	r0, #0
 3629 161e 7FF43DAC 		bne	.L175
 3630 1622 FEF75CBF 		b	.L138
 3631              	.LVL231:
 3632              	.L279:
 3633              	.LBB5:
 3634              		.loc 1 2041 0
 3635 1626 B9F1000F 		cmp	r9, #0
 3636 162a 7EF42FAD 		bne	.L18
 3637              		.loc 1 2043 0
 3638 162e 334C     		ldr	r4, .L844+52
 3639              	.LVL232:
 3640 1630 294D     		ldr	r5, .L844+16
 3641              		.loc 1 2050 0
 3642 1632 334F     		ldr	r7, .L844+56
 3643 1634 2D4E     		ldr	r6, .L844+36
 3644              		.loc 1 2043 0
 3645 1636 DDF81C80 		ldr	r8, [sp, #28]
 3646 163a 0223     		movs	r3, #2
 3647 163c 2360     		str	r3, [r4]
 3648 163e 05E0     		b	.L465
ARM GAS  C:\Users\marwa\AppData\Local\Temp\ccNqFJyR.s 			page 65


 3649              	.L461:
 3650 1640 2368     		ldr	r3, [r4]
 3651 1642 0233     		adds	r3, r3, #2
 3652 1644 FE2B     		cmp	r3, #254
 3653 1646 2360     		str	r3, [r4]
 3654 1648 3EF720AD 		bgt	.L18
 3655              	.L465:
 3656              		.loc 1 2045 0
 3657 164c FFF7FEFF 		bl	e_i2cp_enable
 3658              	.LVL233:
 3659              		.loc 1 2046 0
 3660 1650 0021     		movs	r1, #0
 3661 1652 2078     		ldrb	r0, [r4]	@ zero_extendqisi2
 3662 1654 FFF7FEFF 		bl	e_i2cp_read
 3663              	.LVL234:
 3664 1658 2860     		str	r0, [r5]
 3665              		.loc 1 2047 0
 3666 165a FFF7FEFF 		bl	e_i2cp_disable
 3667              	.LVL235:
 3668              		.loc 1 2048 0
 3669 165e 2B68     		ldr	r3, [r5]
 3670 1660 002B     		cmp	r3, #0
 3671 1662 EDDB     		blt	.L461
 3672              		.loc 1 2050 0
 3673 1664 2268     		ldr	r2, [r4]
 3674 1666 3946     		mov	r1, r7
 3675 1668 3046     		mov	r0, r6
 3676 166a FFF7FEFF 		bl	sprintf
 3677              	.LVL236:
 3678              		.loc 1 2053 0
 3679 166e 3046     		mov	r0, r6
 3680              		.loc 1 2051 0
 3681 1670 B8F1000F 		cmp	r8, #0
 3682 1674 00F0CF86 		beq	.L462
 3683              		.loc 1 2053 0
 3684 1678 FFF7FEFF 		bl	strlen
 3685              	.LVL237:
 3686 167c 0146     		mov	r1, r0
 3687 167e 3046     		mov	r0, r6
 3688 1680 FFF7FEFF 		bl	e_send_uart1_char
 3689              	.LVL238:
 3690              	.L463:
 3691              		.loc 1 2053 0 is_stmt 0 discriminator 2
 3692 1684 FFF7FEFF 		bl	e_uart1_sending
 3693              	.LVL239:
 3694 1688 0028     		cmp	r0, #0
 3695 168a FBD1     		bne	.L463
 3696 168c D8E7     		b	.L461
 3697              	.LVL240:
 3698              	.L281:
 3699              		.loc 1 1936 0 is_stmt 1
 3700 168e B9F1000F 		cmp	r9, #0
 3701 1692 40F04D86 		bne	.L435
 3702              		.loc 1 1938 0
 3703 1696 FFF7FEFF 		bl	getTemperature
 3704              	.LVL241:
 3705 169a 1A49     		ldr	r1, .L844+60
ARM GAS  C:\Users\marwa\AppData\Local\Temp\ccNqFJyR.s 			page 66


 3706 169c 0246     		mov	r2, r0
 3707 169e 1348     		ldr	r0, .L844+36
 3708 16a0 FFF7FEFF 		bl	sprintf
 3709              	.LVL242:
 3710              		.loc 1 1947 0
 3711 16a4 079B     		ldr	r3, [sp, #28]
 3712 16a6 002B     		cmp	r3, #0
 3713 16a8 00F02E87 		beq	.L823
 3714              		.loc 1 1949 0
 3715 16ac 0F48     		ldr	r0, .L844+36
 3716 16ae FFF7FEFF 		bl	strlen
 3717              	.LVL243:
 3718 16b2 0146     		mov	r1, r0
 3719 16b4 0D48     		ldr	r0, .L844+36
 3720 16b6 FFF7FEFF 		bl	e_send_uart1_char
 3721              	.LVL244:
 3722              	.L438:
 3723              		.loc 1 1949 0 is_stmt 0 discriminator 2
 3724 16ba FFF7FEFF 		bl	e_uart1_sending
 3725              	.LVL245:
 3726 16be 0028     		cmp	r0, #0
 3727 16c0 FBD1     		bne	.L438
 3728 16c2 FEF7E3BC 		b	.L18
 3729              	.L845:
 3730 16c6 00BF     		.align	2
 3731              	.L844:
 3732 16c8 00000000 		.word	.LANCHOR20
 3733 16cc 00000000 		.word	.LANCHOR21
 3734 16d0 00000000 		.word	.LANCHOR8
 3735 16d4 00000000 		.word	.LANCHOR25
 3736 16d8 00000000 		.word	.LANCHOR26
 3737 16dc 00000000 		.word	.LANCHOR14
 3738 16e0 00000000 		.word	.LANCHOR15
 3739 16e4 00000000 		.word	.LANCHOR16
 3740 16e8 00000000 		.word	.LANCHOR17
 3741 16ec 00000000 		.word	buffer
 3742 16f0 00000000 		.word	.LANCHOR11
 3743 16f4 00000000 		.word	.LANCHOR12
 3744 16f8 00000000 		.word	.LANCHOR13
 3745 16fc 00000000 		.word	.LANCHOR18
 3746 1700 240B0000 		.word	.LC93
 3747 1704 B40A0000 		.word	.LC85
 3748              	.L271:
 3749              		.loc 1 1839 0 is_stmt 1
 3750 1708 B24C     		ldr	r4, .L846
 3751              	.LVL246:
 3752 170a B34D     		ldr	r5, .L846+4
 3753 170c B349     		ldr	r1, .L846+8
 3754 170e B448     		ldr	r0, .L846+12
 3755 1710 2346     		mov	r3, r4
 3756 1712 2A46     		mov	r2, r5
 3757 1714 FFF7FEFF 		bl	sscanf
 3758              	.LVL247:
 3759              		.loc 1 1840 0
 3760 1718 2868     		ldr	r0, [r5]
 3761 171a FFF7FEFF 		bl	e_set_steps_left
 3762              	.LVL248:
ARM GAS  C:\Users\marwa\AppData\Local\Temp\ccNqFJyR.s 			page 67


 3763              		.loc 1 1841 0
 3764 171e 2068     		ldr	r0, [r4]
 3765 1720 FFF7FEFF 		bl	e_set_steps_right
 3766              	.LVL249:
 3767              		.loc 1 1842 0
 3768 1724 B9F1000F 		cmp	r9, #0
 3769 1728 7EF4B0AC 		bne	.L18
 3770              		.loc 1 1845 0
 3771 172c 079B     		ldr	r3, [sp, #28]
 3772              		.loc 1 1847 0
 3773 172e AD48     		ldr	r0, .L846+16
 3774 1730 0321     		movs	r1, #3
 3775              		.loc 1 1845 0
 3776 1732 002B     		cmp	r3, #0
 3777 1734 00F01887 		beq	.L414
 3778              		.loc 1 1847 0
 3779 1738 FFF7FEFF 		bl	e_send_uart1_char
 3780              	.LVL250:
 3781              	.L415:
 3782              		.loc 1 1847 0 is_stmt 0 discriminator 2
 3783 173c FFF7FEFF 		bl	e_uart1_sending
 3784              	.LVL251:
 3785 1740 0028     		cmp	r0, #0
 3786 1742 FBD1     		bne	.L415
 3787 1744 FEF7A2BC 		b	.L18
 3788              	.LVL252:
 3789              	.L272:
 3790              		.loc 1 1855 0 is_stmt 1
 3791 1748 FFF7FEFF 		bl	e_get_steps_left
 3792              	.LVL253:
 3793 174c 0446     		mov	r4, r0
 3794              	.LVL254:
 3795 174e FFF7FEFF 		bl	e_get_steps_right
 3796              	.LVL255:
 3797 1752 2246     		mov	r2, r4
 3798 1754 0346     		mov	r3, r0
 3799 1756 A449     		ldr	r1, .L846+20
 3800 1758 A148     		ldr	r0, .L846+12
 3801 175a FFF7FEFF 		bl	sprintf
 3802              	.LVL256:
 3803              		.loc 1 1856 0
 3804 175e B9F1000F 		cmp	r9, #0
 3805 1762 7EF493AC 		bne	.L18
 3806 1766 9E48     		ldr	r0, .L846+12
 3807 1768 FFF7FEFF 		bl	strlen
 3808              	.LVL257:
 3809              		.loc 1 1859 0
 3810 176c 079B     		ldr	r3, [sp, #28]
 3811 176e 0146     		mov	r1, r0
 3812              		.loc 1 1861 0
 3813 1770 9B48     		ldr	r0, .L846+12
 3814              		.loc 1 1859 0
 3815 1772 002B     		cmp	r3, #0
 3816 1774 00F0F086 		beq	.L417
 3817              		.loc 1 1861 0
 3818 1778 FFF7FEFF 		bl	e_send_uart1_char
 3819              	.LVL258:
ARM GAS  C:\Users\marwa\AppData\Local\Temp\ccNqFJyR.s 			page 68


 3820              	.L418:
 3821              		.loc 1 1861 0 is_stmt 0 discriminator 2
 3822 177c FFF7FEFF 		bl	e_uart1_sending
 3823              	.LVL259:
 3824 1780 0028     		cmp	r0, #0
 3825 1782 FBD1     		bne	.L418
 3826 1784 FEF782BC 		b	.L18
 3827              	.LVL260:
 3828              	.L273:
 3829              		.loc 1 1877 0 is_stmt 1
 3830 1788 0020     		movs	r0, #0
 3831 178a FFF7FEFF 		bl	e_set_speed_left
 3832              	.LVL261:
 3833              		.loc 1 1878 0
 3834 178e 0020     		movs	r0, #0
 3835 1790 FFF7FEFF 		bl	e_set_speed_right
 3836              	.LVL262:
 3837              		.loc 1 1879 0
 3838 1794 0021     		movs	r1, #0
 3839 1796 0820     		movs	r0, #8
 3840 1798 FFF7FEFF 		bl	e_set_led
 3841              	.LVL263:
 3842              		.loc 1 1880 0
 3843 179c B9F1000F 		cmp	r9, #0
 3844 17a0 7EF474AC 		bne	.L18
 3845              		.loc 1 1883 0
 3846 17a4 079B     		ldr	r3, [sp, #28]
 3847              		.loc 1 1885 0
 3848 17a6 9148     		ldr	r0, .L846+24
 3849 17a8 0321     		movs	r1, #3
 3850              		.loc 1 1883 0
 3851 17aa 002B     		cmp	r3, #0
 3852 17ac 00F07E86 		beq	.L420
 3853              		.loc 1 1885 0
 3854 17b0 FFF7FEFF 		bl	e_send_uart1_char
 3855              	.LVL264:
 3856              	.L421:
 3857              		.loc 1 1885 0 is_stmt 0 discriminator 2
 3858 17b4 FFF7FEFF 		bl	e_uart1_sending
 3859              	.LVL265:
 3860 17b8 0028     		cmp	r0, #0
 3861 17ba FBD1     		bne	.L421
 3862 17bc FEF766BC 		b	.L18
 3863              	.L274:
 3864              		.loc 1 1894 0 is_stmt 1
 3865 17c0 8B4C     		ldr	r4, .L846+28
 3866              	.LVL266:
 3867              		.loc 1 1893 0
 3868 17c2 8C4A     		ldr	r2, .L846+32
 3869 17c4 8C49     		ldr	r1, .L846+36
 3870 17c6 8648     		ldr	r0, .L846+12
 3871 17c8 FFF7FEFF 		bl	sscanf
 3872              	.LVL267:
 3873              		.loc 1 1894 0
 3874 17cc 2378     		ldrb	r3, [r4]	@ zero_extendqisi2
 3875 17ce 1BB9     		cbnz	r3, .L423
 3876              		.loc 1 1896 0
ARM GAS  C:\Users\marwa\AppData\Local\Temp\ccNqFJyR.s 			page 69


 3877 17d0 FFF7FEFF 		bl	e_init_sound
 3878              	.LVL268:
 3879              		.loc 1 1897 0
 3880 17d4 0123     		movs	r3, #1
 3881 17d6 2370     		strb	r3, [r4]
 3882              	.L423:
 3883              		.loc 1 1899 0
 3884 17d8 864B     		ldr	r3, .L846+32
 3885 17da 1B68     		ldr	r3, [r3]
 3886 17dc 013B     		subs	r3, r3, #1
 3887 17de 042B     		cmp	r3, #4
 3888 17e0 01F29A80 		bhi	.L424
 3889 17e4 DFE813F0 		tbh	[pc, r3, lsl #1]
 3890              	.L426:
 3891 17e8 C605     		.2byte	(.L425-.L426)/2
 3892 17ea EA05     		.2byte	(.L427-.L426)/2
 3893 17ec E405     		.2byte	(.L428-.L426)/2
 3894 17ee F005     		.2byte	(.L429-.L426)/2
 3895 17f0 DD05     		.2byte	(.L430-.L426)/2
 3896              	.LVL269:
 3897              		.p2align 1
 3898              	.L275:
 3899              		.loc 1 1958 0
 3900 17f2 0020     		movs	r0, #0
 3901 17f4 FFF7FEFF 		bl	e_get_micro_volume
 3902              	.LVL270:
 3903 17f8 0446     		mov	r4, r0
 3904              	.LVL271:
 3905 17fa 0120     		movs	r0, #1
 3906 17fc FFF7FEFF 		bl	e_get_micro_volume
 3907              	.LVL272:
 3908 1800 0546     		mov	r5, r0
 3909 1802 0220     		movs	r0, #2
 3910 1804 FFF7FEFF 		bl	e_get_micro_volume
 3911              	.LVL273:
 3912 1808 2B46     		mov	r3, r5
 3913 180a 0090     		str	r0, [sp]
 3914 180c 2246     		mov	r2, r4
 3915 180e 7B49     		ldr	r1, .L846+40
 3916 1810 7348     		ldr	r0, .L846+12
 3917 1812 FFF7FEFF 		bl	sprintf
 3918              	.LVL274:
 3919              		.loc 1 1959 0
 3920 1816 B9F1000F 		cmp	r9, #0
 3921 181a 7EF437AC 		bne	.L18
 3922 181e 7048     		ldr	r0, .L846+12
 3923 1820 FFF7FEFF 		bl	strlen
 3924              	.LVL275:
 3925              		.loc 1 1962 0
 3926 1824 079B     		ldr	r3, [sp, #28]
 3927 1826 0146     		mov	r1, r0
 3928              		.loc 1 1964 0
 3929 1828 6D48     		ldr	r0, .L846+12
 3930              		.loc 1 1962 0
 3931 182a 002B     		cmp	r3, #0
 3932 182c 00F0FA87 		beq	.L440
 3933              		.loc 1 1964 0
ARM GAS  C:\Users\marwa\AppData\Local\Temp\ccNqFJyR.s 			page 70


 3934 1830 FFF7FEFF 		bl	e_send_uart1_char
 3935              	.LVL276:
 3936              	.L441:
 3937              		.loc 1 1964 0 is_stmt 0 discriminator 2
 3938 1834 FFF7FEFF 		bl	e_uart1_sending
 3939              	.LVL277:
 3940 1838 0028     		cmp	r0, #0
 3941 183a FBD1     		bne	.L441
 3942 183c FEF726BC 		b	.L18
 3943              	.LVL278:
 3944              	.L277:
 3945              		.loc 1 1997 0 is_stmt 1
 3946 1840 B9F1000F 		cmp	r9, #0
 3947 1844 7EF422AC 		bne	.L18
 3948              		.loc 1 1999 0
 3949 1848 6D4E     		ldr	r6, .L846+44
 3950 184a 6E4C     		ldr	r4, .L846+48
 3951              	.LVL279:
 3952 184c 6E4D     		ldr	r5, .L846+52
 3953 184e 6F49     		ldr	r1, .L846+56
 3954 1850 0095     		str	r5, [sp]
 3955 1852 3346     		mov	r3, r6
 3956 1854 2246     		mov	r2, r4
 3957 1856 6248     		ldr	r0, .L846+12
 3958 1858 FFF7FEFF 		bl	sscanf
 3959              	.LVL280:
 3960              		.loc 1 2000 0
 3961 185c FFF7FEFF 		bl	e_i2cp_enable
 3962              	.LVL281:
 3963              		.loc 1 2001 0
 3964 1860 3178     		ldrb	r1, [r6]	@ zero_extendqisi2
 3965 1862 2A78     		ldrb	r2, [r5]	@ zero_extendqisi2
 3966 1864 2078     		ldrb	r0, [r4]	@ zero_extendqisi2
 3967 1866 FFF7FEFF 		bl	e_i2cp_write
 3968              	.LVL282:
 3969              		.loc 1 2002 0
 3970 186a FFF7FEFF 		bl	e_i2cp_disable
 3971              	.LVL283:
 3972              		.loc 1 2003 0
 3973 186e 079B     		ldr	r3, [sp, #28]
 3974              		.loc 1 2005 0
 3975 1870 6748     		ldr	r0, .L846+60
 3976 1872 0321     		movs	r1, #3
 3977              		.loc 1 2003 0
 3978 1874 002B     		cmp	r3, #0
 3979 1876 01F06280 		beq	.L451
 3980              		.loc 1 2005 0
 3981 187a FFF7FEFF 		bl	e_send_uart1_char
 3982              	.LVL284:
 3983              	.L452:
 3984              		.loc 1 2005 0 is_stmt 0 discriminator 2
 3985 187e FFF7FEFF 		bl	e_uart1_sending
 3986              	.LVL285:
 3987 1882 0028     		cmp	r0, #0
 3988 1884 FBD1     		bne	.L452
 3989 1886 FEF701BC 		b	.L18
 3990              	.LVL286:
ARM GAS  C:\Users\marwa\AppData\Local\Temp\ccNqFJyR.s 			page 71


 3991              	.L278:
 3992              		.loc 1 2014 0 is_stmt 1
 3993 188a B9F1000F 		cmp	r9, #0
 3994 188e 7EF4FDAB 		bne	.L18
 3995              		.loc 1 2016 0
 3996 1892 5B4D     		ldr	r5, .L846+44
 3997 1894 5B4C     		ldr	r4, .L846+48
 3998              	.LVL287:
 3999 1896 5F49     		ldr	r1, .L846+64
 4000 1898 5148     		ldr	r0, .L846+12
 4001 189a 2B46     		mov	r3, r5
 4002 189c 2246     		mov	r2, r4
 4003 189e FFF7FEFF 		bl	sscanf
 4004              	.LVL288:
 4005              		.loc 1 2017 0
 4006 18a2 2B68     		ldr	r3, [r5]
 4007 18a4 2268     		ldr	r2, [r4]
 4008 18a6 5C49     		ldr	r1, .L846+68
 4009 18a8 4D48     		ldr	r0, .L846+12
 4010 18aa FFF7FEFF 		bl	sprintf
 4011              	.LVL289:
 4012              		.loc 1 2018 0
 4013 18ae 079B     		ldr	r3, [sp, #28]
 4014              		.loc 1 2020 0
 4015 18b0 4B48     		ldr	r0, .L846+12
 4016              		.loc 1 2018 0
 4017 18b2 002B     		cmp	r3, #0
 4018 18b4 00F0C687 		beq	.L454
 4019              		.loc 1 2020 0
 4020 18b8 FFF7FEFF 		bl	strlen
 4021              	.LVL290:
 4022 18bc 0146     		mov	r1, r0
 4023 18be 4848     		ldr	r0, .L846+12
 4024 18c0 FFF7FEFF 		bl	e_send_uart1_char
 4025              	.LVL291:
 4026              	.L455:
 4027              		.loc 1 2020 0 is_stmt 0 discriminator 2
 4028 18c4 FFF7FEFF 		bl	e_uart1_sending
 4029              	.LVL292:
 4030 18c8 0028     		cmp	r0, #0
 4031 18ca FBD1     		bne	.L455
 4032              		.loc 1 2026 0 is_stmt 1
 4033 18cc FFF7FEFF 		bl	e_i2cp_enable
 4034              	.LVL293:
 4035              		.loc 1 2027 0
 4036 18d0 2978     		ldrb	r1, [r5]	@ zero_extendqisi2
 4037 18d2 2078     		ldrb	r0, [r4]	@ zero_extendqisi2
 4038 18d4 4C4D     		ldr	r5, .L846+52
 4039 18d6 FFF7FEFF 		bl	e_i2cp_read
 4040              	.LVL294:
 4041 18da 2860     		str	r0, [r5]
 4042              		.loc 1 2028 0
 4043 18dc FFF7FEFF 		bl	e_i2cp_disable
 4044              	.LVL295:
 4045              		.loc 1 2029 0
 4046 18e0 4E49     		ldr	r1, .L846+72
 4047 18e2 2A68     		ldr	r2, [r5]
ARM GAS  C:\Users\marwa\AppData\Local\Temp\ccNqFJyR.s 			page 72


 4048 18e4 3E48     		ldr	r0, .L846+12
 4049 18e6 FFF7FEFF 		bl	sprintf
 4050              	.LVL296:
 4051              		.loc 1 2032 0
 4052 18ea 3D48     		ldr	r0, .L846+12
 4053 18ec FFF7FEFF 		bl	strlen
 4054              	.LVL297:
 4055 18f0 0146     		mov	r1, r0
 4056 18f2 3B48     		ldr	r0, .L846+12
 4057 18f4 FFF7FEFF 		bl	e_send_uart1_char
 4058              	.LVL298:
 4059              	.L459:
 4060              		.loc 1 2032 0 is_stmt 0 discriminator 2
 4061 18f8 FFF7FEFF 		bl	e_uart1_sending
 4062              	.LVL299:
 4063 18fc 0028     		cmp	r0, #0
 4064 18fe FBD1     		bne	.L459
 4065 1900 FEF7C4BB 		b	.L18
 4066              	.LVL300:
 4067              	.L276:
 4068              		.loc 1 1972 0 is_stmt 1
 4069 1904 B9F1000F 		cmp	r9, #0
 4070 1908 40F01985 		bne	.L443
 4071              		.loc 1 1975 0
 4072 190c 079B     		ldr	r3, [sp, #28]
 4073              		.loc 1 1977 0
 4074 190e 4448     		ldr	r0, .L846+76
 4075 1910 2521     		movs	r1, #37
 4076              		.loc 1 1975 0
 4077 1912 002B     		cmp	r3, #0
 4078 1914 00F0D285 		beq	.L444
 4079              		.loc 1 1977 0
 4080 1918 FFF7FEFF 		bl	e_send_uart1_char
 4081              	.LVL301:
 4082              	.L445:
 4083              		.loc 1 1977 0 is_stmt 0 discriminator 2
 4084 191c FFF7FEFF 		bl	e_uart1_sending
 4085              	.LVL302:
 4086 1920 0028     		cmp	r0, #0
 4087 1922 FBD1     		bne	.L445
 4088              		.loc 1 1983 0 is_stmt 1
 4089 1924 3F4B     		ldr	r3, .L846+80
 4090 1926 4049     		ldr	r1, .L846+84
 4091 1928 1A68     		ldr	r2, [r3]
 4092 192a 2D48     		ldr	r0, .L846+12
 4093 192c FFF7FEFF 		bl	sprintf
 4094              	.LVL303:
 4095              		.loc 1 1989 0
 4096 1930 2B48     		ldr	r0, .L846+12
 4097 1932 FFF7FEFF 		bl	strlen
 4098              	.LVL304:
 4099 1936 0146     		mov	r1, r0
 4100 1938 2948     		ldr	r0, .L846+12
 4101 193a FFF7FEFF 		bl	e_send_uart1_char
 4102              	.LVL305:
 4103              	.L449:
 4104              		.loc 1 1989 0 is_stmt 0 discriminator 2
ARM GAS  C:\Users\marwa\AppData\Local\Temp\ccNqFJyR.s 			page 73


 4105 193e FFF7FEFF 		bl	e_uart1_sending
 4106              	.LVL306:
 4107 1942 0028     		cmp	r0, #0
 4108 1944 FBD1     		bne	.L449
 4109 1946 FEF7A1BB 		b	.L18
 4110              	.L255:
 4111              		.loc 1 1381 0 is_stmt 1
 4112 194a B9F1000F 		cmp	r9, #0
 4113 194e 40F00F85 		bne	.L282
 4114              		.loc 1 1383 0
 4115 1952 0121     		movs	r1, #1
 4116 1954 4846     		mov	r0, r9
 4117 1956 FFF7FEFF 		bl	e_get_acc_filtered
 4118              	.LVL307:
 4119 195a 0121     		movs	r1, #1
 4120 195c 0446     		mov	r4, r0
 4121              	.LVL308:
 4122 195e 0846     		mov	r0, r1
 4123 1960 FFF7FEFF 		bl	e_get_acc_filtered
 4124              	.LVL309:
 4125 1964 0121     		movs	r1, #1
 4126 1966 0546     		mov	r5, r0
 4127 1968 0220     		movs	r0, #2
 4128 196a FFF7FEFF 		bl	e_get_acc_filtered
 4129              	.LVL310:
 4130 196e 2B46     		mov	r3, r5
 4131 1970 0090     		str	r0, [sp]
 4132 1972 2246     		mov	r2, r4
 4133 1974 2D49     		ldr	r1, .L846+88
 4134 1976 1A48     		ldr	r0, .L846+12
 4135 1978 FFF7FEFF 		bl	sprintf
 4136              	.LVL311:
 4137              		.loc 1 1392 0
 4138 197c 079B     		ldr	r3, [sp, #28]
 4139 197e 002B     		cmp	r3, #0
 4140 1980 00F03B87 		beq	.L824
 4141              		.loc 1 1394 0
 4142 1984 1648     		ldr	r0, .L846+12
 4143 1986 FFF7FEFF 		bl	strlen
 4144              	.LVL312:
 4145 198a 0146     		mov	r1, r0
 4146 198c 1448     		ldr	r0, .L846+12
 4147 198e FFF7FEFF 		bl	e_send_uart1_char
 4148              	.LVL313:
 4149              	.L285:
 4150              		.loc 1 1394 0 is_stmt 0 discriminator 2
 4151 1992 FFF7FEFF 		bl	e_uart1_sending
 4152              	.LVL314:
 4153 1996 0028     		cmp	r0, #0
 4154 1998 FBD1     		bne	.L285
 4155 199a FEF777BB 		b	.L18
 4156              	.LVL315:
 4157              	.L257:
 4158              		.loc 1 1416 0 is_stmt 1
 4159 199e 244C     		ldr	r4, .L846+92
 4160              	.LVL316:
 4161 19a0 2449     		ldr	r1, .L846+96
ARM GAS  C:\Users\marwa\AppData\Local\Temp\ccNqFJyR.s 			page 74


 4162 19a2 0F48     		ldr	r0, .L846+12
 4163 19a4 2246     		mov	r2, r4
 4164 19a6 FFF7FEFF 		bl	sscanf
 4165              	.LVL317:
 4166              		.loc 1 1417 0
 4167 19aa 2068     		ldr	r0, [r4]
 4168 19ac FFF7FEFF 		bl	e_set_body_led
 4169              	.LVL318:
 4170              		.loc 1 1418 0
 4171 19b0 B9F1000F 		cmp	r9, #0
 4172 19b4 7EF46AAB 		bne	.L18
 4173              		.loc 1 1421 0
 4174 19b8 079B     		ldr	r3, [sp, #28]
 4175              		.loc 1 1423 0
 4176 19ba 1F48     		ldr	r0, .L846+100
 4177 19bc 0321     		movs	r1, #3
 4178              		.loc 1 1421 0
 4179 19be 002B     		cmp	r3, #0
 4180 19c0 00F0D386 		beq	.L290
 4181              		.loc 1 1423 0
 4182 19c4 FFF7FEFF 		bl	e_send_uart1_char
 4183              	.LVL319:
 4184              	.L291:
 4185              		.loc 1 1423 0 is_stmt 0 discriminator 2
 4186 19c8 FFF7FEFF 		bl	e_uart1_sending
 4187              	.LVL320:
 4188 19cc 0028     		cmp	r0, #0
 4189 19ce FBD1     		bne	.L291
 4190 19d0 FEF75CBB 		b	.L18
 4191              	.L847:
 4192              		.align	2
 4193              	.L846:
 4194 19d4 00000000 		.word	.LANCHOR23
 4195 19d8 00000000 		.word	.LANCHOR31
 4196 19dc 880A0000 		.word	.LC79
 4197 19e0 00000000 		.word	buffer
 4198 19e4 940A0000 		.word	.LC80
 4199 19e8 980A0000 		.word	.LC81
 4200 19ec A40A0000 		.word	.LC82
 4201 19f0 00000000 		.word	.LANCHOR9
 4202 19f4 00000000 		.word	.LANCHOR32
 4203 19f8 A80A0000 		.word	.LC83
 4204 19fc C40A0000 		.word	.LC87
 4205 1a00 00000000 		.word	.LANCHOR25
 4206 1a04 00000000 		.word	.LANCHOR24
 4207 1a08 00000000 		.word	.LANCHOR26
 4208 1a0c FC0A0000 		.word	.LC89
 4209 1a10 080B0000 		.word	.LC90
 4210 1a14 0C0B0000 		.word	.LC91
 4211 1a18 180B0000 		.word	.LC92
 4212 1a1c 5C0B0000 		.word	.LC96
 4213 1a20 D40A0000 		.word	.LC88
 4214 1a24 00000000 		.word	.LANCHOR1
 4215 1a28 480B0000 		.word	.LC95
 4216 1a2c 5C000000 		.word	.LC1
 4217 1a30 00000000 		.word	.LANCHOR27
 4218 1a34 88000000 		.word	.LC4
ARM GAS  C:\Users\marwa\AppData\Local\Temp\ccNqFJyR.s 			page 75


 4219 1a38 90000000 		.word	.LC5
 4220              	.LVL321:
 4221              	.L258:
 4222              		.loc 1 1431 0 is_stmt 1
 4223 1a3c 554A     		ldr	r2, .L848
 4224 1a3e 5649     		ldr	r1, .L848+4
 4225 1a40 1369     		ldr	r3, [r2, #16]
 4226 1a42 1069     		ldr	r0, [r2, #16]
 4227 1a44 0C69     		ldr	r4, [r1, #16]
 4228              	.LVL322:
 4229 1a46 1269     		ldr	r2, [r2, #16]
 4230              		.loc 1 1432 0
 4231 1a48 5449     		ldr	r1, .L848+8
 4232              		.loc 1 1431 0
 4233 1a4a C4F30014 		ubfx	r4, r4, #4, #1
 4234 1a4e C0F3C030 		ubfx	r0, r0, #15, #1
 4235 1a52 00EB4400 		add	r0, r0, r4, lsl #1
 4236 1a56 C2F38032 		ubfx	r2, r2, #14, #1
 4237 1a5a 02EB4002 		add	r2, r2, r0, lsl #1
 4238 1a5e C3F34033 		ubfx	r3, r3, #13, #1
 4239 1a62 03EB4203 		add	r3, r3, r2, lsl #1
 4240 1a66 4E4C     		ldr	r4, .L848+12
 4241              		.loc 1 1432 0
 4242 1a68 4E48     		ldr	r0, .L848+16
 4243              		.loc 1 1431 0
 4244 1a6a 2360     		str	r3, [r4]
 4245              		.loc 1 1432 0
 4246 1a6c 1A46     		mov	r2, r3
 4247 1a6e FFF7FEFF 		bl	sprintf
 4248              	.LVL323:
 4249              		.loc 1 1433 0
 4250 1a72 B9F1000F 		cmp	r9, #0
 4251 1a76 7EF409AB 		bne	.L18
 4252 1a7a 4A48     		ldr	r0, .L848+16
 4253 1a7c FFF7FEFF 		bl	strlen
 4254              	.LVL324:
 4255              		.loc 1 1436 0
 4256 1a80 079B     		ldr	r3, [sp, #28]
 4257 1a82 0146     		mov	r1, r0
 4258              		.loc 1 1438 0
 4259 1a84 4748     		ldr	r0, .L848+16
 4260              		.loc 1 1436 0
 4261 1a86 002B     		cmp	r3, #0
 4262 1a88 00F0A786 		beq	.L293
 4263              		.loc 1 1438 0
 4264 1a8c FFF7FEFF 		bl	e_send_uart1_char
 4265              	.LVL325:
 4266              	.L294:
 4267              		.loc 1 1438 0 is_stmt 0 discriminator 2
 4268 1a90 FFF7FEFF 		bl	e_uart1_sending
 4269              	.LVL326:
 4270 1a94 0028     		cmp	r0, #0
 4271 1a96 FBD1     		bne	.L294
 4272 1a98 FEF7F8BA 		b	.L18
 4273              	.LVL327:
 4274              	.L259:
 4275              		.loc 1 1446 0 is_stmt 1
ARM GAS  C:\Users\marwa\AppData\Local\Temp\ccNqFJyR.s 			page 76


 4276 1a9c 424C     		ldr	r4, .L848+20
 4277              	.LVL328:
 4278 1a9e 434D     		ldr	r5, .L848+24
 4279 1aa0 4349     		ldr	r1, .L848+28
 4280 1aa2 4048     		ldr	r0, .L848+16
 4281 1aa4 2346     		mov	r3, r4
 4282 1aa6 2A46     		mov	r2, r5
 4283 1aa8 FFF7FEFF 		bl	sscanf
 4284              	.LVL329:
 4285              		.loc 1 1447 0
 4286 1aac 2868     		ldr	r0, [r5]
 4287 1aae FFF7FEFF 		bl	e_set_speed_left
 4288              	.LVL330:
 4289              		.loc 1 1448 0
 4290 1ab2 2068     		ldr	r0, [r4]
 4291 1ab4 FFF7FEFF 		bl	e_set_speed_right
 4292              	.LVL331:
 4293              		.loc 1 1449 0
 4294 1ab8 B9F1000F 		cmp	r9, #0
 4295 1abc 7EF4E6AA 		bne	.L18
 4296              		.loc 1 1452 0
 4297 1ac0 079B     		ldr	r3, [sp, #28]
 4298              		.loc 1 1454 0
 4299 1ac2 3C48     		ldr	r0, .L848+32
 4300 1ac4 0321     		movs	r1, #3
 4301              		.loc 1 1452 0
 4302 1ac6 002B     		cmp	r3, #0
 4303 1ac8 00F07786 		beq	.L296
 4304              		.loc 1 1454 0
 4305 1acc FFF7FEFF 		bl	e_send_uart1_char
 4306              	.LVL332:
 4307              	.L297:
 4308              		.loc 1 1454 0 is_stmt 0 discriminator 2
 4309 1ad0 FFF7FEFF 		bl	e_uart1_sending
 4310              	.LVL333:
 4311 1ad4 0028     		cmp	r0, #0
 4312 1ad6 FBD1     		bne	.L297
 4313 1ad8 FEF7D8BA 		b	.L18
 4314              	.LVL334:
 4315              	.L260:
 4316              		.loc 1 1462 0 is_stmt 1
 4317 1adc 324C     		ldr	r4, .L848+20
 4318              	.LVL335:
 4319 1ade 334A     		ldr	r2, .L848+24
 4320 1ae0 2368     		ldr	r3, [r4]
 4321 1ae2 1268     		ldr	r2, [r2]
 4322 1ae4 3449     		ldr	r1, .L848+36
 4323 1ae6 2F48     		ldr	r0, .L848+16
 4324 1ae8 FFF7FEFF 		bl	sprintf
 4325              	.LVL336:
 4326              		.loc 1 1463 0
 4327 1aec B9F1000F 		cmp	r9, #0
 4328 1af0 7EF4CCAA 		bne	.L18
 4329 1af4 2B48     		ldr	r0, .L848+16
 4330 1af6 FFF7FEFF 		bl	strlen
 4331              	.LVL337:
 4332              		.loc 1 1466 0
ARM GAS  C:\Users\marwa\AppData\Local\Temp\ccNqFJyR.s 			page 77


 4333 1afa 079B     		ldr	r3, [sp, #28]
 4334 1afc 0146     		mov	r1, r0
 4335              		.loc 1 1468 0
 4336 1afe 2948     		ldr	r0, .L848+16
 4337              		.loc 1 1466 0
 4338 1b00 002B     		cmp	r3, #0
 4339 1b02 00F04A86 		beq	.L299
 4340              		.loc 1 1468 0
 4341 1b06 FFF7FEFF 		bl	e_send_uart1_char
 4342              	.LVL338:
 4343              	.L300:
 4344              		.loc 1 1468 0 is_stmt 0 discriminator 2
 4345 1b0a FFF7FEFF 		bl	e_uart1_sending
 4346              	.LVL339:
 4347 1b0e 0028     		cmp	r0, #0
 4348 1b10 FBD1     		bne	.L300
 4349 1b12 FEF7BBBA 		b	.L18
 4350              	.LVL340:
 4351              	.L261:
 4352              		.loc 1 1476 0 is_stmt 1
 4353 1b16 294C     		ldr	r4, .L848+40
 4354              	.LVL341:
 4355 1b18 2949     		ldr	r1, .L848+44
 4356 1b1a 2248     		ldr	r0, .L848+16
 4357 1b1c 2246     		mov	r2, r4
 4358 1b1e FFF7FEFF 		bl	sscanf
 4359              	.LVL342:
 4360              		.loc 1 1477 0
 4361 1b22 2068     		ldr	r0, [r4]
 4362 1b24 FFF7FEFF 		bl	e_set_front_led
 4363              	.LVL343:
 4364              		.loc 1 1478 0
 4365 1b28 B9F1000F 		cmp	r9, #0
 4366 1b2c 7EF4AEAA 		bne	.L18
 4367              		.loc 1 1481 0
 4368 1b30 079B     		ldr	r3, [sp, #28]
 4369              		.loc 1 1483 0
 4370 1b32 2448     		ldr	r0, .L848+48
 4371 1b34 0321     		movs	r1, #3
 4372              		.loc 1 1481 0
 4373 1b36 002B     		cmp	r3, #0
 4374 1b38 00F01F86 		beq	.L302
 4375              		.loc 1 1483 0
 4376 1b3c FFF7FEFF 		bl	e_send_uart1_char
 4377              	.LVL344:
 4378              	.L303:
 4379              		.loc 1 1483 0 is_stmt 0 discriminator 2
 4380 1b40 FFF7FEFF 		bl	e_uart1_sending
 4381              	.LVL345:
 4382 1b44 0028     		cmp	r0, #0
 4383 1b46 FBD1     		bne	.L303
 4384 1b48 FEF7A0BA 		b	.L18
 4385              	.LVL346:
 4386              	.L262:
 4387              		.loc 1 1492 0 is_stmt 1
 4388 1b4c FFF7FEFF 		bl	e_get_check
 4389              	.LVL347:
ARM GAS  C:\Users\marwa\AppData\Local\Temp\ccNqFJyR.s 			page 78


 4390 1b50 0446     		mov	r4, r0
 4391              	.LVL348:
 4392 1b52 FFF7FEFF 		bl	e_get_address
 4393              	.LVL349:
 4394 1b56 0546     		mov	r5, r0
 4395 1b58 FFF7FEFF 		bl	e_get_data
 4396              	.LVL350:
 4397 1b5c 2B46     		mov	r3, r5
 4398 1b5e 0090     		str	r0, [sp]
 4399 1b60 2246     		mov	r2, r4
 4400 1b62 1949     		ldr	r1, .L848+52
 4401 1b64 0F48     		ldr	r0, .L848+16
 4402 1b66 FFF7FEFF 		bl	sprintf
 4403              	.LVL351:
 4404              		.loc 1 1493 0
 4405 1b6a B9F1000F 		cmp	r9, #0
 4406 1b6e 7EF48DAA 		bne	.L18
 4407 1b72 0C48     		ldr	r0, .L848+16
 4408 1b74 FFF7FEFF 		bl	strlen
 4409              	.LVL352:
 4410              		.loc 1 1496 0
 4411 1b78 079B     		ldr	r3, [sp, #28]
 4412 1b7a 0146     		mov	r1, r0
 4413              		.loc 1 1498 0
 4414 1b7c 0948     		ldr	r0, .L848+16
 4415              		.loc 1 1496 0
 4416 1b7e 002B     		cmp	r3, #0
 4417 1b80 00F04886 		beq	.L305
 4418              		.loc 1 1498 0
 4419 1b84 FFF7FEFF 		bl	e_send_uart1_char
 4420              	.LVL353:
 4421              	.L306:
 4422              		.loc 1 1498 0 is_stmt 0 discriminator 2
 4423 1b88 FFF7FEFF 		bl	e_uart1_sending
 4424              	.LVL354:
 4425 1b8c 0028     		cmp	r0, #0
 4426 1b8e FBD1     		bne	.L306
 4427 1b90 FEF77CBA 		b	.L18
 4428              	.L849:
 4429              		.align	2
 4430              	.L848:
 4431 1b94 00080240 		.word	1073874944
 4432 1b98 000C0240 		.word	1073875968
 4433 1b9c 94000000 		.word	.LC6
 4434 1ba0 00000000 		.word	selector
 4435 1ba4 00000000 		.word	buffer
 4436 1ba8 00000000 		.word	.LANCHOR7
 4437 1bac 00000000 		.word	.LANCHOR8
 4438 1bb0 9C000000 		.word	.LC7
 4439 1bb4 A8000000 		.word	.LC8
 4440 1bb8 AC000000 		.word	.LC9
 4441 1bbc 00000000 		.word	.LANCHOR27
 4442 1bc0 B8000000 		.word	.LC10
 4443 1bc4 C0000000 		.word	.LC11
 4444 1bc8 C4000000 		.word	.LC12
 4445              	.LVL355:
 4446              	.L263:
ARM GAS  C:\Users\marwa\AppData\Local\Temp\ccNqFJyR.s 			page 79


 4447              		.loc 1 1529 0 is_stmt 1
 4448 1bcc B9F1000F 		cmp	r9, #0
 4449 1bd0 7EF45CAA 		bne	.L18
 4450              		.loc 1 1569 0
 4451 1bd4 079B     		ldr	r3, [sp, #28]
 4452              		.loc 1 1571 0
 4453 1bd6 8548     		ldr	r0, .L850
 4454 1bd8 0121     		movs	r1, #1
 4455              		.loc 1 1569 0
 4456 1bda 002B     		cmp	r3, #0
 4457 1bdc 00F0CC84 		beq	.L313
 4458              		.loc 1 1571 0
 4459 1be0 FFF7FEFF 		bl	e_send_uart1_char
 4460              	.LVL356:
 4461              	.L314:
 4462              		.loc 1 1571 0 is_stmt 0 discriminator 2
 4463 1be4 FFF7FEFF 		bl	e_uart1_sending
 4464              	.LVL357:
 4465 1be8 0028     		cmp	r0, #0
 4466 1bea FBD1     		bne	.L314
 4467              		.loc 1 1572 0 is_stmt 1
 4468 1bec 2121     		movs	r1, #33
 4469 1bee 8048     		ldr	r0, .L850+4
 4470 1bf0 FFF7FEFF 		bl	e_send_uart1_char
 4471              	.LVL358:
 4472              	.L315:
 4473              		.loc 1 1572 0 is_stmt 0 discriminator 2
 4474 1bf4 FFF7FEFF 		bl	e_uart1_sending
 4475              	.LVL359:
 4476 1bf8 0028     		cmp	r0, #0
 4477 1bfa FBD1     		bne	.L315
 4478              		.loc 1 1573 0 is_stmt 1
 4479 1bfc 3121     		movs	r1, #49
 4480 1bfe 7D48     		ldr	r0, .L850+8
 4481 1c00 FFF7FEFF 		bl	e_send_uart1_char
 4482              	.LVL360:
 4483              	.L316:
 4484              		.loc 1 1573 0 is_stmt 0 discriminator 2
 4485 1c04 FFF7FEFF 		bl	e_uart1_sending
 4486              	.LVL361:
 4487 1c08 0028     		cmp	r0, #0
 4488 1c0a FBD1     		bne	.L316
 4489              		.loc 1 1574 0 is_stmt 1
 4490 1c0c FFF7FEFF 		bl	isEpuckVersion1_3
 4491              	.LVL362:
 4492 1c10 0028     		cmp	r0, #0
 4493 1c12 00F0A586 		beq	.L317
 4494              		.loc 1 1576 0
 4495 1c16 2121     		movs	r1, #33
 4496 1c18 7748     		ldr	r0, .L850+12
 4497 1c1a FFF7FEFF 		bl	e_send_uart1_char
 4498              	.LVL363:
 4499              	.L318:
 4500              		.loc 1 1576 0 is_stmt 0 discriminator 2
 4501 1c1e FFF7FEFF 		bl	e_uart1_sending
 4502              	.LVL364:
 4503 1c22 0028     		cmp	r0, #0
ARM GAS  C:\Users\marwa\AppData\Local\Temp\ccNqFJyR.s 			page 80


 4504 1c24 FBD1     		bne	.L318
 4505              	.L319:
 4506              		.loc 1 1582 0 is_stmt 1
 4507 1c26 2521     		movs	r1, #37
 4508 1c28 7448     		ldr	r0, .L850+16
 4509 1c2a FFF7FEFF 		bl	e_send_uart1_char
 4510              	.LVL365:
 4511              	.L321:
 4512              		.loc 1 1582 0 is_stmt 0 discriminator 2
 4513 1c2e FFF7FEFF 		bl	e_uart1_sending
 4514              	.LVL366:
 4515 1c32 0028     		cmp	r0, #0
 4516 1c34 FBD1     		bne	.L321
 4517              		.loc 1 1583 0 is_stmt 1
 4518 1c36 2E21     		movs	r1, #46
 4519 1c38 7148     		ldr	r0, .L850+20
 4520 1c3a FFF7FEFF 		bl	e_send_uart1_char
 4521              	.LVL367:
 4522              	.L322:
 4523              		.loc 1 1583 0 is_stmt 0 discriminator 2
 4524 1c3e FFF7FEFF 		bl	e_uart1_sending
 4525              	.LVL368:
 4526 1c42 0028     		cmp	r0, #0
 4527 1c44 FBD1     		bne	.L322
 4528              		.loc 1 1584 0 is_stmt 1
 4529 1c46 2E21     		movs	r1, #46
 4530 1c48 6E48     		ldr	r0, .L850+24
 4531 1c4a FFF7FEFF 		bl	e_send_uart1_char
 4532              	.LVL369:
 4533              	.L323:
 4534              		.loc 1 1584 0 is_stmt 0 discriminator 2
 4535 1c4e FFF7FEFF 		bl	e_uart1_sending
 4536              	.LVL370:
 4537 1c52 0028     		cmp	r0, #0
 4538 1c54 FBD1     		bne	.L323
 4539              		.loc 1 1585 0 is_stmt 1
 4540 1c56 3221     		movs	r1, #50
 4541 1c58 6B48     		ldr	r0, .L850+28
 4542 1c5a FFF7FEFF 		bl	e_send_uart1_char
 4543              	.LVL371:
 4544              	.L324:
 4545              		.loc 1 1585 0 is_stmt 0 discriminator 2
 4546 1c5e FFF7FEFF 		bl	e_uart1_sending
 4547              	.LVL372:
 4548 1c62 0028     		cmp	r0, #0
 4549 1c64 FBD1     		bne	.L324
 4550              		.loc 1 1587 0 is_stmt 1
 4551 1c66 1F21     		movs	r1, #31
 4552 1c68 6848     		ldr	r0, .L850+32
 4553 1c6a FFF7FEFF 		bl	e_send_uart1_char
 4554              	.LVL373:
 4555              	.L325:
 4556              		.loc 1 1587 0 is_stmt 0 discriminator 2
 4557 1c6e FFF7FEFF 		bl	e_uart1_sending
 4558              	.LVL374:
 4559 1c72 0028     		cmp	r0, #0
 4560 1c74 FBD1     		bne	.L325
ARM GAS  C:\Users\marwa\AppData\Local\Temp\ccNqFJyR.s 			page 81


 4561              		.loc 1 1589 0 is_stmt 1
 4562 1c76 FFF7FEFF 		bl	isEpuckVersion1_3
 4563              	.LVL375:
 4564 1c7a 0028     		cmp	r0, #0
 4565 1c7c 40F0A086 		bne	.L825
 4566              	.L326:
 4567              		.loc 1 1593 0
 4568 1c80 1821     		movs	r1, #24
 4569 1c82 6348     		ldr	r0, .L850+36
 4570 1c84 FFF7FEFF 		bl	e_send_uart1_char
 4571              	.LVL376:
 4572              	.L328:
 4573              		.loc 1 1593 0 is_stmt 0 discriminator 2
 4574 1c88 FFF7FEFF 		bl	e_uart1_sending
 4575              	.LVL377:
 4576 1c8c 0028     		cmp	r0, #0
 4577 1c8e FBD1     		bne	.L328
 4578              		.loc 1 1594 0 is_stmt 1
 4579 1c90 2821     		movs	r1, #40
 4580 1c92 6048     		ldr	r0, .L850+40
 4581 1c94 FFF7FEFF 		bl	e_send_uart1_char
 4582              	.LVL378:
 4583              	.L329:
 4584              		.loc 1 1594 0 is_stmt 0 discriminator 2
 4585 1c98 FFF7FEFF 		bl	e_uart1_sending
 4586              	.LVL379:
 4587 1c9c 0028     		cmp	r0, #0
 4588 1c9e FBD1     		bne	.L329
 4589              		.loc 1 1595 0 is_stmt 1
 4590 1ca0 4F21     		movs	r1, #79
 4591 1ca2 5D48     		ldr	r0, .L850+44
 4592 1ca4 FFF7FEFF 		bl	e_send_uart1_char
 4593              	.LVL380:
 4594              	.L330:
 4595              		.loc 1 1595 0 is_stmt 0 discriminator 2
 4596 1ca8 FFF7FEFF 		bl	e_uart1_sending
 4597              	.LVL381:
 4598 1cac 0028     		cmp	r0, #0
 4599 1cae FBD1     		bne	.L330
 4600              		.loc 1 1596 0 is_stmt 1
 4601 1cb0 2F21     		movs	r1, #47
 4602 1cb2 5A48     		ldr	r0, .L850+48
 4603 1cb4 FFF7FEFF 		bl	e_send_uart1_char
 4604              	.LVL382:
 4605              	.L331:
 4606              		.loc 1 1596 0 is_stmt 0 discriminator 2
 4607 1cb8 FFF7FEFF 		bl	e_uart1_sending
 4608              	.LVL383:
 4609 1cbc 0028     		cmp	r0, #0
 4610 1cbe FBD1     		bne	.L331
 4611              		.loc 1 1597 0 is_stmt 1
 4612 1cc0 3321     		movs	r1, #51
 4613 1cc2 5748     		ldr	r0, .L850+52
 4614 1cc4 FFF7FEFF 		bl	e_send_uart1_char
 4615              	.LVL384:
 4616              	.L332:
 4617              		.loc 1 1597 0 is_stmt 0 discriminator 2
ARM GAS  C:\Users\marwa\AppData\Local\Temp\ccNqFJyR.s 			page 82


 4618 1cc8 FFF7FEFF 		bl	e_uart1_sending
 4619              	.LVL385:
 4620 1ccc 0028     		cmp	r0, #0
 4621 1cce FBD1     		bne	.L332
 4622              		.loc 1 1599 0 is_stmt 1
 4623 1cd0 2121     		movs	r1, #33
 4624 1cd2 5448     		ldr	r0, .L850+56
 4625 1cd4 FFF7FEFF 		bl	e_send_uart1_char
 4626              	.LVL386:
 4627              	.L333:
 4628              		.loc 1 1599 0 is_stmt 0 discriminator 2
 4629 1cd8 FFF7FEFF 		bl	e_uart1_sending
 4630              	.LVL387:
 4631 1cdc 0028     		cmp	r0, #0
 4632 1cde FBD1     		bne	.L333
 4633              		.loc 1 1601 0 is_stmt 1
 4634 1ce0 1D21     		movs	r1, #29
 4635 1ce2 5148     		ldr	r0, .L850+60
 4636 1ce4 FFF7FEFF 		bl	e_send_uart1_char
 4637              	.LVL388:
 4638              	.L334:
 4639              		.loc 1 1601 0 is_stmt 0 discriminator 2
 4640 1ce8 FFF7FEFF 		bl	e_uart1_sending
 4641              	.LVL389:
 4642 1cec 0028     		cmp	r0, #0
 4643 1cee FBD1     		bne	.L334
 4644              		.loc 1 1602 0 is_stmt 1
 4645 1cf0 2121     		movs	r1, #33
 4646 1cf2 4E48     		ldr	r0, .L850+64
 4647 1cf4 FFF7FEFF 		bl	e_send_uart1_char
 4648              	.LVL390:
 4649              	.L335:
 4650              		.loc 1 1602 0 is_stmt 0 discriminator 2
 4651 1cf8 FFF7FEFF 		bl	e_uart1_sending
 4652              	.LVL391:
 4653 1cfc 0028     		cmp	r0, #0
 4654 1cfe FBD1     		bne	.L335
 4655              		.loc 1 1603 0 is_stmt 1
 4656 1d00 3121     		movs	r1, #49
 4657 1d02 4B48     		ldr	r0, .L850+68
 4658 1d04 FFF7FEFF 		bl	e_send_uart1_char
 4659              	.LVL392:
 4660              	.L336:
 4661              		.loc 1 1603 0 is_stmt 0 discriminator 2
 4662 1d08 FFF7FEFF 		bl	e_uart1_sending
 4663              	.LVL393:
 4664 1d0c 0028     		cmp	r0, #0
 4665 1d0e FBD1     		bne	.L336
 4666              		.loc 1 1604 0 is_stmt 1
 4667 1d10 3121     		movs	r1, #49
 4668 1d12 4848     		ldr	r0, .L850+72
 4669 1d14 FFF7FEFF 		bl	e_send_uart1_char
 4670              	.LVL394:
 4671              	.L337:
 4672              		.loc 1 1604 0 is_stmt 0 discriminator 2
 4673 1d18 FFF7FEFF 		bl	e_uart1_sending
 4674              	.LVL395:
ARM GAS  C:\Users\marwa\AppData\Local\Temp\ccNqFJyR.s 			page 83


 4675 1d1c 0028     		cmp	r0, #0
 4676 1d1e FBD1     		bne	.L337
 4677              		.loc 1 1605 0 is_stmt 1
 4678 1d20 2021     		movs	r1, #32
 4679 1d22 4548     		ldr	r0, .L850+76
 4680 1d24 FFF7FEFF 		bl	e_send_uart1_char
 4681              	.LVL396:
 4682              	.L338:
 4683              		.loc 1 1605 0 is_stmt 0 discriminator 2
 4684 1d28 FFF7FEFF 		bl	e_uart1_sending
 4685              	.LVL397:
 4686 1d2c 0028     		cmp	r0, #0
 4687 1d2e FBD1     		bne	.L338
 4688              		.loc 1 1606 0 is_stmt 1
 4689 1d30 3121     		movs	r1, #49
 4690 1d32 4248     		ldr	r0, .L850+80
 4691 1d34 FFF7FEFF 		bl	e_send_uart1_char
 4692              	.LVL398:
 4693              	.L339:
 4694              		.loc 1 1606 0 is_stmt 0 discriminator 2
 4695 1d38 FFF7FEFF 		bl	e_uart1_sending
 4696              	.LVL399:
 4697 1d3c 0028     		cmp	r0, #0
 4698 1d3e FBD1     		bne	.L339
 4699              		.loc 1 1607 0 is_stmt 1
 4700 1d40 3221     		movs	r1, #50
 4701 1d42 3F48     		ldr	r0, .L850+84
 4702 1d44 FFF7FEFF 		bl	e_send_uart1_char
 4703              	.LVL400:
 4704              	.L340:
 4705              		.loc 1 1607 0 is_stmt 0 discriminator 2
 4706 1d48 FFF7FEFF 		bl	e_uart1_sending
 4707              	.LVL401:
 4708 1d4c 0028     		cmp	r0, #0
 4709 1d4e FBD1     		bne	.L340
 4710              		.loc 1 1608 0 is_stmt 1
 4711 1d50 FFF7FEFF 		bl	isEpuckVersion1_3
 4712              	.LVL402:
 4713 1d54 0028     		cmp	r0, #0
 4714 1d56 40F02986 		bne	.L826
 4715              	.L341:
 4716              		.loc 1 1612 0
 4717 1d5a 2C21     		movs	r1, #44
 4718 1d5c 3948     		ldr	r0, .L850+88
 4719 1d5e FFF7FEFF 		bl	e_send_uart1_char
 4720              	.LVL403:
 4721              	.L343:
 4722              		.loc 1 1612 0 is_stmt 0 discriminator 2
 4723 1d62 FFF7FEFF 		bl	e_uart1_sending
 4724              	.LVL404:
 4725 1d66 0028     		cmp	r0, #0
 4726 1d68 FBD1     		bne	.L343
 4727              		.loc 1 1613 0 is_stmt 1
 4728 1d6a 2521     		movs	r1, #37
 4729 1d6c 3648     		ldr	r0, .L850+92
 4730 1d6e FFF7FEFF 		bl	e_send_uart1_char
 4731              	.LVL405:
ARM GAS  C:\Users\marwa\AppData\Local\Temp\ccNqFJyR.s 			page 84


 4732              	.L344:
 4733              		.loc 1 1613 0 is_stmt 0 discriminator 2
 4734 1d72 FFF7FEFF 		bl	e_uart1_sending
 4735              	.LVL406:
 4736 1d76 0028     		cmp	r0, #0
 4737 1d78 FBD1     		bne	.L344
 4738              		.loc 1 1614 0 is_stmt 1
 4739 1d7a 2B21     		movs	r1, #43
 4740 1d7c 3348     		ldr	r0, .L850+96
 4741 1d7e FFF7FEFF 		bl	e_send_uart1_char
 4742              	.LVL407:
 4743              	.L345:
 4744              		.loc 1 1614 0 is_stmt 0 discriminator 2
 4745 1d82 FFF7FEFF 		bl	e_uart1_sending
 4746              	.LVL408:
 4747 1d86 0028     		cmp	r0, #0
 4748 1d88 FBD1     		bne	.L345
 4749              		.loc 1 1615 0 is_stmt 1
 4750 1d8a 2A21     		movs	r1, #42
 4751 1d8c 3048     		ldr	r0, .L850+100
 4752 1d8e FFF7FEFF 		bl	e_send_uart1_char
 4753              	.LVL409:
 4754              	.L346:
 4755              		.loc 1 1615 0 is_stmt 0 discriminator 2
 4756 1d92 FFF7FEFF 		bl	e_uart1_sending
 4757              	.LVL410:
 4758 1d96 0028     		cmp	r0, #0
 4759 1d98 FBD1     		bne	.L346
 4760 1d9a FEF777B9 		b	.L18
 4761              	.L264:
 4762              		.loc 1 1662 0 is_stmt 1
 4763 1d9e B9F1000F 		cmp	r9, #0
 4764 1da2 7EF473A9 		bne	.L18
 4765              		.loc 1 1664 0
 4766 1da6 0899     		ldr	r1, [sp, #32]
 4767 1da8 0A9B     		ldr	r3, [sp, #40]
 4768 1daa 0C68     		ldr	r4, [r1]
 4769              	.LVL411:
 4770 1dac 0D99     		ldr	r1, [sp, #52]
 4771 1dae 0C9A     		ldr	r2, [sp, #48]
 4772 1db0 0868     		ldr	r0, [r1]
 4773 1db2 0B99     		ldr	r1, [sp, #44]
 4774 1db4 1B68     		ldr	r3, [r3]
 4775 1db6 0968     		ldr	r1, [r1]
 4776 1db8 1268     		ldr	r2, [r2]
 4777 1dba 0091     		str	r1, [sp]
 4778 1dbc CDE90104 		strd	r0, r4, [sp, #4]
 4779 1dc0 2449     		ldr	r1, .L850+104
 4780 1dc2 2548     		ldr	r0, .L850+108
 4781 1dc4 FFF7FEFF 		bl	sprintf
 4782              	.LVL412:
 4783              		.loc 1 1665 0
 4784 1dc8 079B     		ldr	r3, [sp, #28]
 4785              		.loc 1 1667 0
 4786 1dca 2348     		ldr	r0, .L850+108
 4787              		.loc 1 1665 0
 4788 1dcc 002B     		cmp	r3, #0
ARM GAS  C:\Users\marwa\AppData\Local\Temp\ccNqFJyR.s 			page 85


 4789 1dce 00F09785 		beq	.L377
 4790              		.loc 1 1667 0
 4791 1dd2 FFF7FEFF 		bl	strlen
 4792              	.LVL413:
 4793 1dd6 0146     		mov	r1, r0
 4794 1dd8 1F48     		ldr	r0, .L850+108
 4795 1dda FFF7FEFF 		bl	e_send_uart1_char
 4796              	.LVL414:
 4797              	.L378:
 4798              		.loc 1 1667 0 is_stmt 0 discriminator 2
 4799 1dde FFF7FEFF 		bl	e_uart1_sending
 4800              	.LVL415:
 4801 1de2 0028     		cmp	r0, #0
 4802 1de4 FBD1     		bne	.L378
 4803 1de6 FEF751B9 		b	.L18
 4804              	.L851:
 4805 1dea 00BF     		.align	2
 4806              	.L850:
 4807 1dec 14010000 		.word	.LC15
 4808 1df0 18010000 		.word	.LC16
 4809 1df4 3C010000 		.word	.LC17
 4810 1df8 70010000 		.word	.LC18
 4811 1dfc C4010000 		.word	.LC20
 4812 1e00 EC010000 		.word	.LC21
 4813 1e04 1C020000 		.word	.LC22
 4814 1e08 4C020000 		.word	.LC23
 4815 1e0c 80020000 		.word	.LC24
 4816 1e10 BC020000 		.word	.LC26
 4817 1e14 D8020000 		.word	.LC27
 4818 1e18 04030000 		.word	.LC28
 4819 1e1c 54030000 		.word	.LC29
 4820 1e20 84030000 		.word	.LC30
 4821 1e24 B8030000 		.word	.LC31
 4822 1e28 DC030000 		.word	.LC32
 4823 1e2c FC030000 		.word	.LC33
 4824 1e30 20040000 		.word	.LC34
 4825 1e34 54040000 		.word	.LC35
 4826 1e38 88040000 		.word	.LC36
 4827 1e3c AC040000 		.word	.LC37
 4828 1e40 E0040000 		.word	.LC38
 4829 1e44 34050000 		.word	.LC40
 4830 1e48 64050000 		.word	.LC41
 4831 1e4c 8C050000 		.word	.LC42
 4832 1e50 B8050000 		.word	.LC43
 4833 1e54 BC090000 		.word	.LC70
 4834 1e58 00000000 		.word	buffer
 4835              	.LVL416:
 4836              	.L265:
 4837              		.loc 1 1676 0 is_stmt 1
 4838 1e5c B9F1000F 		cmp	r9, #0
 4839 1e60 7EF414A9 		bne	.L18
 4840              		.loc 1 1676 0 is_stmt 0 discriminator 1
 4841 1e64 FFF7FEFF 		bl	get_object_found
 4842              	.LVL417:
 4843 1e68 0028     		cmp	r0, #0
 4844 1e6a 40F01383 		bne	.L382
 4845              		.loc 1 1676 0 discriminator 2
ARM GAS  C:\Users\marwa\AppData\Local\Temp\ccNqFJyR.s 			page 86


 4846 1e6e FFF7FEFF 		bl	get_one_time
 4847              	.LVL418:
 4848 1e72 0028     		cmp	r0, #0
 4849 1e74 40F00E83 		bne	.L382
 4850              	.L385:
 4851              		.loc 1 1681 0 is_stmt 1
 4852 1e78 0D9B     		ldr	r3, [sp, #52]
 4853              		.loc 1 1679 0
 4854 1e7a C54D     		ldr	r5, .L852
 4855              		.loc 1 1680 0
 4856 1e7c C54C     		ldr	r4, .L852+4
 4857              	.LVL419:
 4858              		.loc 1 1681 0
 4859 1e7e 0193     		str	r3, [sp, #4]
 4860              		.loc 1 1679 0
 4861 1e80 4FF0FF36 		mov	r6, #-1
 4862              		.loc 1 1681 0
 4863 1e84 0B9B     		ldr	r3, [sp, #44]
 4864 1e86 0093     		str	r3, [sp]
 4865 1e88 0295     		str	r5, [sp, #8]
 4866 1e8a 0394     		str	r4, [sp, #12]
 4867 1e8c C24B     		ldr	r3, .L852+8
 4868 1e8e C34A     		ldr	r2, .L852+12
 4869 1e90 C349     		ldr	r1, .L852+16
 4870 1e92 C448     		ldr	r0, .L852+20
 4871              		.loc 1 1679 0
 4872 1e94 2E60     		str	r6, [r5]
 4873              		.loc 1 1680 0
 4874 1e96 2660     		str	r6, [r4]
 4875              		.loc 1 1681 0
 4876 1e98 FFF7FEFF 		bl	sscanf
 4877              	.LVL420:
 4878              		.loc 1 1682 0
 4879 1e9c 0C9B     		ldr	r3, [sp, #48]
 4880 1e9e 1B68     		ldr	r3, [r3]
 4881 1ea0 002B     		cmp	r3, #0
 4882 1ea2 40F07085 		bne	.L827
 4883              		.loc 1 1683 0
 4884 1ea6 0A9B     		ldr	r3, [sp, #40]
 4885 1ea8 1A68     		ldr	r2, [r3]
 4886 1eaa 0B9B     		ldr	r3, [sp, #44]
 4887 1eac 1B68     		ldr	r3, [r3]
 4888 1eae 03FB02F3 		mul	r3, r3, r2
 4889 1eb2 089A     		ldr	r2, [sp, #32]
 4890 1eb4 1360     		str	r3, [r2]
 4891              	.L386:
 4892              		.loc 1 1686 0
 4893 1eb6 41F22802 		movw	r2, #4136
 4894 1eba 9342     		cmp	r3, r2
 4895 1ebc 0BDD     		ble	.L387
 4896              		.loc 1 1688 0
 4897 1ebe 0C99     		ldr	r1, [sp, #48]
 4898 1ec0 0122     		movs	r2, #1
 4899 1ec2 0A60     		str	r2, [r1]
 4900              		.loc 1 1689 0
 4901 1ec4 0A99     		ldr	r1, [sp, #40]
 4902 1ec6 2823     		movs	r3, #40
ARM GAS  C:\Users\marwa\AppData\Local\Temp\ccNqFJyR.s 			page 87


 4903 1ec8 0B60     		str	r3, [r1]
 4904              		.loc 1 1690 0
 4905 1eca 0B99     		ldr	r1, [sp, #44]
 4906 1ecc 0B60     		str	r3, [r1]
 4907              		.loc 1 1691 0
 4908 1ece 089B     		ldr	r3, [sp, #32]
 4909 1ed0 4FF44862 		mov	r2, #3200
 4910 1ed4 1A60     		str	r2, [r3]
 4911              	.L387:
 4912              		.loc 1 1693 0
 4913 1ed6 FFF7FEFF 		bl	e_poxxxx_init_cam
 4914              	.LVL421:
 4915              		.loc 1 1696 0
 4916 1eda 0D9B     		ldr	r3, [sp, #52]
 4917              		.loc 1 1694 0
 4918 1edc 2868     		ldr	r0, [r5]
 4919              		.loc 1 1696 0
 4920 1ede 1E68     		ldr	r6, [r3]
 4921 1ee0 0A9B     		ldr	r3, [sp, #40]
 4922              		.loc 1 1698 0
 4923 1ee2 2168     		ldr	r1, [r4]
 4924              		.loc 1 1696 0
 4925 1ee4 1A68     		ldr	r2, [r3]
 4926 1ee6 0B9B     		ldr	r3, [sp, #44]
 4927              		.loc 1 1694 0
 4928 1ee8 471C     		adds	r7, r0, #1
 4929              		.loc 1 1696 0
 4930 1eea 02FB06F2 		mul	r2, r2, r6
 4931 1eee 02BF     		ittt	eq
 4932 1ef0 C2F52070 		rsbeq	r0, r2, #640
 4933 1ef4 00EBD070 		addeq	r0, r0, r0, lsr #31
 4934 1ef8 4010     		asreq	r0, r0, #1
 4935 1efa 1B68     		ldr	r3, [r3]
 4936 1efc 08BF     		it	eq
 4937 1efe 2860     		streq	r0, [r5]
 4938              		.loc 1 1698 0
 4939 1f00 4D1C     		adds	r5, r1, #1
 4940 1f02 03FB06F3 		mul	r3, r3, r6
 4941 1f06 00F06585 		beq	.L828
 4942              	.L390:
 4943              		.loc 1 1702 0
 4944 1f0a 0C9C     		ldr	r4, [sp, #48]
 4945 1f0c 2468     		ldr	r4, [r4]
 4946 1f0e 0294     		str	r4, [sp, #8]
 4947 1f10 CDE90066 		strd	r6, r6, [sp]
 4948 1f14 FFF7FEFF 		bl	e_poxxxx_config_cam
 4949              	.LVL422:
 4950              		.loc 1 1703 0
 4951 1f18 FFF7FEFF 		bl	e_poxxxx_write_cam_registers
 4952              	.LVL423:
 4953              		.loc 1 1704 0
 4954 1f1c 079B     		ldr	r3, [sp, #28]
 4955              		.loc 1 1706 0
 4956 1f1e A248     		ldr	r0, .L852+24
 4957 1f20 0321     		movs	r1, #3
 4958              		.loc 1 1704 0
 4959 1f22 002B     		cmp	r3, #0
ARM GAS  C:\Users\marwa\AppData\Local\Temp\ccNqFJyR.s 			page 88


 4960 1f24 00F03A85 		beq	.L391
 4961              		.loc 1 1706 0
 4962 1f28 FFF7FEFF 		bl	e_send_uart1_char
 4963              	.LVL424:
 4964              	.L392:
 4965              		.loc 1 1706 0 is_stmt 0 discriminator 2
 4966 1f2c FFF7FEFF 		bl	e_uart1_sending
 4967              	.LVL425:
 4968 1f30 0028     		cmp	r0, #0
 4969 1f32 FBD1     		bne	.L392
 4970 1f34 FEF7AAB8 		b	.L18
 4971              	.LVL426:
 4972              	.L266:
 4973              		.loc 1 1715 0 is_stmt 1
 4974 1f38 B9F1000F 		cmp	r9, #0
 4975 1f3c 40F00782 		bne	.L394
 4976              		.loc 1 1718 0
 4977 1f40 079B     		ldr	r3, [sp, #28]
 4978              		.loc 1 1720 0
 4979 1f42 9A48     		ldr	r0, .L852+28
 4980 1f44 3E21     		movs	r1, #62
 4981              		.loc 1 1718 0
 4982 1f46 002B     		cmp	r3, #0
 4983 1f48 00F0E883 		beq	.L395
 4984              		.loc 1 1720 0
 4985 1f4c FFF7FEFF 		bl	e_send_uart1_char
 4986              	.LVL427:
 4987              	.L396:
 4988              		.loc 1 1720 0 is_stmt 0 discriminator 2
 4989 1f50 FFF7FEFF 		bl	e_uart1_sending
 4990              	.LVL428:
 4991 1f54 0028     		cmp	r0, #0
 4992 1f56 FBD1     		bne	.L396
 4993              		.loc 1 1727 0 is_stmt 1
 4994 1f58 0121     		movs	r1, #1
 4995 1f5a 0820     		movs	r0, #8
 4996 1f5c FFF7FEFF 		bl	e_set_led
 4997              	.LVL429:
 4998              		.loc 1 1730 0
 4999 1f60 4FF4C870 		mov	r0, #400
 5000 1f64 FFF7FEFF 		bl	chThdSleep
 5001              	.LVL430:
 5002              		.loc 1 1731 0
 5003 1f68 FFF7FEFF 		bl	e_led_clear
 5004              	.LVL431:
 5005              		.loc 1 1734 0
 5006 1f6c 6420     		movs	r0, #100
 5007 1f6e FFF7FEFF 		bl	chThdSleep
 5008              	.LVL432:
 5009              		.loc 1 1735 0
 5010 1f72 FFF7FEFF 		bl	e_calibrate_ir
 5011              	.LVL433:
 5012              		.loc 1 1741 0
 5013 1f76 1921     		movs	r1, #25
 5014 1f78 8D48     		ldr	r0, .L852+32
 5015 1f7a FFF7FEFF 		bl	e_send_uart1_char
 5016              	.LVL434:
ARM GAS  C:\Users\marwa\AppData\Local\Temp\ccNqFJyR.s 			page 89


 5017              	.L400:
 5018              		.loc 1 1741 0 is_stmt 0 discriminator 2
 5019 1f7e FFF7FEFF 		bl	e_uart1_sending
 5020              	.LVL435:
 5021 1f82 0028     		cmp	r0, #0
 5022 1f84 FBD1     		bne	.L400
 5023 1f86 FEF781B8 		b	.L18
 5024              	.LVL436:
 5025              	.L267:
 5026              		.loc 1 1749 0 is_stmt 1
 5027 1f8a 8A4D     		ldr	r5, .L852+36
 5028 1f8c 8A4C     		ldr	r4, .L852+40
 5029              	.LVL437:
 5030 1f8e 8B49     		ldr	r1, .L852+44
 5031 1f90 8448     		ldr	r0, .L852+20
 5032 1f92 2B46     		mov	r3, r5
 5033 1f94 2246     		mov	r2, r4
 5034 1f96 FFF7FEFF 		bl	sscanf
 5035              	.LVL438:
 5036              		.loc 1 1750 0
 5037 1f9a 2968     		ldr	r1, [r5]
 5038 1f9c 2068     		ldr	r0, [r4]
 5039 1f9e FFF7FEFF 		bl	e_set_led
 5040              	.LVL439:
 5041              		.loc 1 1751 0
 5042 1fa2 B9F1000F 		cmp	r9, #0
 5043 1fa6 7EF471A8 		bne	.L18
 5044              		.loc 1 1754 0
 5045 1faa 079B     		ldr	r3, [sp, #28]
 5046              		.loc 1 1756 0
 5047 1fac 8448     		ldr	r0, .L852+48
 5048 1fae 0321     		movs	r1, #3
 5049              		.loc 1 1754 0
 5050 1fb0 002B     		cmp	r3, #0
 5051 1fb2 00F00A84 		beq	.L402
 5052              		.loc 1 1756 0
 5053 1fb6 FFF7FEFF 		bl	e_send_uart1_char
 5054              	.LVL440:
 5055              	.L403:
 5056              		.loc 1 1756 0 is_stmt 0 discriminator 2
 5057 1fba FFF7FEFF 		bl	e_uart1_sending
 5058              	.LVL441:
 5059 1fbe 0028     		cmp	r0, #0
 5060 1fc0 FBD1     		bne	.L403
 5061 1fc2 FEF763B8 		b	.L18
 5062              	.LVL442:
 5063              	.L268:
 5064              		.loc 1 1766 0 is_stmt 1
 5065 1fc6 B9F1000F 		cmp	r9, #0
 5066 1fca 7EF45FA8 		bne	.L18
 5067              		.loc 1 1768 0
 5068 1fce 4846     		mov	r0, r9
 5069 1fd0 FFF7FEFF 		bl	get_ground_prox
 5070              	.LVL443:
 5071 1fd4 0446     		mov	r4, r0
 5072              	.LVL444:
 5073 1fd6 0120     		movs	r0, #1
ARM GAS  C:\Users\marwa\AppData\Local\Temp\ccNqFJyR.s 			page 90


 5074 1fd8 FFF7FEFF 		bl	get_ground_prox
 5075              	.LVL445:
 5076 1fdc 0546     		mov	r5, r0
 5077 1fde 0220     		movs	r0, #2
 5078 1fe0 FFF7FEFF 		bl	get_ground_prox
 5079              	.LVL446:
 5080 1fe4 0746     		mov	r7, r0
 5081 1fe6 0320     		movs	r0, #3
 5082 1fe8 FFF7FEFF 		bl	get_ground_prox
 5083              	.LVL447:
 5084 1fec 0646     		mov	r6, r0
 5085 1fee 0420     		movs	r0, #4
 5086 1ff0 FFF7FEFF 		bl	get_ground_prox
 5087              	.LVL448:
 5088 1ff4 2B46     		mov	r3, r5
 5089 1ff6 CDE90160 		strd	r6, r0, [sp, #4]
 5090 1ffa 0097     		str	r7, [sp]
 5091 1ffc 2246     		mov	r2, r4
 5092 1ffe 7149     		ldr	r1, .L852+52
 5093 2000 6848     		ldr	r0, .L852+20
 5094 2002 FFF7FEFF 		bl	sprintf
 5095              	.LVL449:
 5096              		.loc 1 1769 0
 5097 2006 079B     		ldr	r3, [sp, #28]
 5098              		.loc 1 1771 0
 5099 2008 6648     		ldr	r0, .L852+20
 5100              		.loc 1 1769 0
 5101 200a 002B     		cmp	r3, #0
 5102 200c 00F08B84 		beq	.L405
 5103              		.loc 1 1771 0
 5104 2010 FFF7FEFF 		bl	strlen
 5105              	.LVL450:
 5106 2014 0146     		mov	r1, r0
 5107 2016 6348     		ldr	r0, .L852+20
 5108 2018 FFF7FEFF 		bl	e_send_uart1_char
 5109              	.LVL451:
 5110              	.L406:
 5111              		.loc 1 1771 0 is_stmt 0 discriminator 2
 5112 201c FFF7FEFF 		bl	e_uart1_sending
 5113              	.LVL452:
 5114 2020 0028     		cmp	r0, #0
 5115 2022 FBD1     		bne	.L406
 5116 2024 FEF732B8 		b	.L18
 5117              	.LVL453:
 5118              	.L269:
 5119              		.loc 1 1807 0 is_stmt 1
 5120 2028 0020     		movs	r0, #0
 5121 202a FFF7FEFF 		bl	e_get_calibrated_prox
 5122              	.LVL454:
 5123 202e 0446     		mov	r4, r0
 5124              	.LVL455:
 5125 2030 0120     		movs	r0, #1
 5126 2032 FFF7FEFF 		bl	e_get_calibrated_prox
 5127              	.LVL456:
 5128 2036 0546     		mov	r5, r0
 5129 2038 0220     		movs	r0, #2
 5130 203a FFF7FEFF 		bl	e_get_calibrated_prox
ARM GAS  C:\Users\marwa\AppData\Local\Temp\ccNqFJyR.s 			page 91


 5131              	.LVL457:
 5132 203e 8246     		mov	r10, r0
 5133 2040 0320     		movs	r0, #3
 5134 2042 FFF7FEFF 		bl	e_get_calibrated_prox
 5135              	.LVL458:
 5136 2046 0646     		mov	r6, r0
 5137 2048 0420     		movs	r0, #4
 5138 204a FFF7FEFF 		bl	e_get_calibrated_prox
 5139              	.LVL459:
 5140 204e 0746     		mov	r7, r0
 5141 2050 0520     		movs	r0, #5
 5142 2052 FFF7FEFF 		bl	e_get_calibrated_prox
 5143              	.LVL460:
 5144 2056 8046     		mov	r8, r0
 5145 2058 0620     		movs	r0, #6
 5146 205a FFF7FEFF 		bl	e_get_calibrated_prox
 5147              	.LVL461:
 5148 205e 0E90     		str	r0, [sp, #56]
 5149 2060 0720     		movs	r0, #7
 5150 2062 FFF7FEFF 		bl	e_get_calibrated_prox
 5151              	.LVL462:
 5152 2066 0E9B     		ldr	r3, [sp, #56]
 5153 2068 0590     		str	r0, [sp, #20]
 5154 206a CDE90383 		strd	r8, r3, [sp, #12]
 5155 206e CDF800A0 		str	r10, [sp]
 5156 2072 CDE90167 		strd	r6, r7, [sp, #4]
 5157 2076 2B46     		mov	r3, r5
 5158 2078 2246     		mov	r2, r4
 5159 207a 5349     		ldr	r1, .L852+56
 5160 207c 4948     		ldr	r0, .L852+20
 5161 207e FFF7FEFF 		bl	sprintf
 5162              	.LVL463:
 5163              		.loc 1 1810 0
 5164 2082 B9F1000F 		cmp	r9, #0
 5165 2086 7EF401A8 		bne	.L18
 5166 208a 4648     		ldr	r0, .L852+20
 5167 208c FFF7FEFF 		bl	strlen
 5168              	.LVL464:
 5169              		.loc 1 1813 0
 5170 2090 079B     		ldr	r3, [sp, #28]
 5171 2092 0146     		mov	r1, r0
 5172              		.loc 1 1815 0
 5173 2094 4348     		ldr	r0, .L852+20
 5174              		.loc 1 1813 0
 5175 2096 002B     		cmp	r3, #0
 5176 2098 00F0A783 		beq	.L408
 5177              		.loc 1 1815 0
 5178 209c FFF7FEFF 		bl	e_send_uart1_char
 5179              	.LVL465:
 5180              	.L409:
 5181              		.loc 1 1815 0 is_stmt 0 discriminator 2
 5182 20a0 FFF7FEFF 		bl	e_uart1_sending
 5183              	.LVL466:
 5184 20a4 0028     		cmp	r0, #0
 5185 20a6 FBD1     		bne	.L409
 5186 20a8 FDF7F0BF 		b	.L18
 5187              	.LVL467:
ARM GAS  C:\Users\marwa\AppData\Local\Temp\ccNqFJyR.s 			page 92


 5188              	.L270:
 5189              		.loc 1 1823 0 is_stmt 1
 5190 20ac 0020     		movs	r0, #0
 5191 20ae FFF7FEFF 		bl	e_get_ambient_light
 5192              	.LVL468:
 5193 20b2 0446     		mov	r4, r0
 5194              	.LVL469:
 5195 20b4 0120     		movs	r0, #1
 5196 20b6 FFF7FEFF 		bl	e_get_ambient_light
 5197              	.LVL470:
 5198 20ba 0546     		mov	r5, r0
 5199 20bc 0220     		movs	r0, #2
 5200 20be FFF7FEFF 		bl	e_get_ambient_light
 5201              	.LVL471:
 5202 20c2 8246     		mov	r10, r0
 5203 20c4 0320     		movs	r0, #3
 5204 20c6 FFF7FEFF 		bl	e_get_ambient_light
 5205              	.LVL472:
 5206 20ca 0646     		mov	r6, r0
 5207 20cc 0420     		movs	r0, #4
 5208 20ce FFF7FEFF 		bl	e_get_ambient_light
 5209              	.LVL473:
 5210 20d2 0746     		mov	r7, r0
 5211 20d4 0520     		movs	r0, #5
 5212 20d6 FFF7FEFF 		bl	e_get_ambient_light
 5213              	.LVL474:
 5214 20da 8046     		mov	r8, r0
 5215 20dc 0620     		movs	r0, #6
 5216 20de FFF7FEFF 		bl	e_get_ambient_light
 5217              	.LVL475:
 5218 20e2 0E90     		str	r0, [sp, #56]
 5219 20e4 0720     		movs	r0, #7
 5220 20e6 FFF7FEFF 		bl	e_get_ambient_light
 5221              	.LVL476:
 5222 20ea 0E9B     		ldr	r3, [sp, #56]
 5223 20ec 0590     		str	r0, [sp, #20]
 5224 20ee CDE90383 		strd	r8, r3, [sp, #12]
 5225 20f2 CDF800A0 		str	r10, [sp]
 5226 20f6 CDE90167 		strd	r6, r7, [sp, #4]
 5227 20fa 2B46     		mov	r3, r5
 5228 20fc 2246     		mov	r2, r4
 5229 20fe 3349     		ldr	r1, .L852+60
 5230 2100 2848     		ldr	r0, .L852+20
 5231 2102 FFF7FEFF 		bl	sprintf
 5232              	.LVL477:
 5233              		.loc 1 1826 0
 5234 2106 B9F1000F 		cmp	r9, #0
 5235 210a 7DF4BFAF 		bne	.L18
 5236 210e 2548     		ldr	r0, .L852+20
 5237 2110 FFF7FEFF 		bl	strlen
 5238              	.LVL478:
 5239              		.loc 1 1829 0
 5240 2114 079B     		ldr	r3, [sp, #28]
 5241 2116 0146     		mov	r1, r0
 5242              		.loc 1 1831 0
 5243 2118 2248     		ldr	r0, .L852+20
 5244              		.loc 1 1829 0
ARM GAS  C:\Users\marwa\AppData\Local\Temp\ccNqFJyR.s 			page 93


 5245 211a 002B     		cmp	r3, #0
 5246 211c 00F04583 		beq	.L411
 5247              		.loc 1 1831 0
 5248 2120 FFF7FEFF 		bl	e_send_uart1_char
 5249              	.LVL479:
 5250              	.L412:
 5251              		.loc 1 1831 0 is_stmt 0 discriminator 2
 5252 2124 FFF7FEFF 		bl	e_uart1_sending
 5253              	.LVL480:
 5254 2128 0028     		cmp	r0, #0
 5255 212a FBD1     		bne	.L412
 5256 212c FDF7AEBF 		b	.L18
 5257              	.LVL481:
 5258              	.L254:
 5259              		.loc 1 2064 0 is_stmt 1
 5260 2130 B9F1000F 		cmp	r9, #0
 5261 2134 7DF4AAAF 		bne	.L18
 5262              		.loc 1 2067 0
 5263 2138 079B     		ldr	r3, [sp, #28]
 5264              		.loc 1 2069 0
 5265 213a 2548     		ldr	r0, .L852+64
 5266 213c 1521     		movs	r1, #21
 5267              		.loc 1 2067 0
 5268 213e 002B     		cmp	r3, #0
 5269 2140 00F00B83 		beq	.L466
 5270              		.loc 1 2069 0
 5271 2144 FFF7FEFF 		bl	e_send_uart1_char
 5272              	.LVL482:
 5273              	.L467:
 5274              		.loc 1 2069 0 is_stmt 0 discriminator 2
 5275 2148 FFF7FEFF 		bl	e_uart1_sending
 5276              	.LVL483:
 5277 214c 0028     		cmp	r0, #0
 5278 214e FBD1     		bne	.L467
 5279 2150 FDF79CBF 		b	.L18
 5280              	.LVL484:
 5281              	.L804:
 5282              	.LBE5:
 5283              		.loc 1 272 0 is_stmt 1
 5284 2154 FFF7FEFF 		bl	e_init_sound
 5285              	.LVL485:
 5286              		.loc 1 273 0
 5287 2158 0123     		movs	r3, #1
 5288 215a 2370     		strb	r3, [r4]
 5289 215c FEF79EBB 		b	.L41
 5290              	.LVL486:
 5291              	.L803:
 5292              		.loc 1 339 0
 5293 2160 FFF7FEFF 		bl	e_init_sound
 5294              	.LVL487:
 5295              		.loc 1 340 0
 5296 2164 0123     		movs	r3, #1
 5297 2166 2370     		strb	r3, [r4]
 5298 2168 FEF715BB 		b	.L57
 5299              	.LVL488:
 5300              	.L797:
 5301              		.loc 1 1314 0
ARM GAS  C:\Users\marwa\AppData\Local\Temp\ccNqFJyR.s 			page 94


 5302 216c 83F80090 		strb	r9, [r3]
 5303              		.loc 1 1315 0
 5304 2170 FFF7FEFF 		bl	e_poxxxx_wait_img_ready
 5305              	.LVL489:
 5306              		.loc 1 1316 0
 5307 2174 FFF7FEFF 		bl	cam_get_last_image_ptr
 5308              	.LVL490:
 5309 2178 089B     		ldr	r3, [sp, #32]
 5310 217a 0A4D     		ldr	r5, .L852+20
 5311 217c 1A68     		ldr	r2, [r3]
 5312 217e 099B     		ldr	r3, [sp, #36]
 5313 2180 0146     		mov	r1, r0
 5314 2182 E818     		adds	r0, r5, r3
 5315 2184 FFF7FEFF 		bl	memcpy
 5316              	.LVL491:
 5317 2188 DAF80010 		ldr	r1, [r10]
 5318 218c FEF7D6B9 		b	.L231
 5319              	.L853:
 5320              		.align	2
 5321              	.L852:
 5322 2190 00000000 		.word	.LANCHOR28
 5323 2194 00000000 		.word	.LANCHOR29
 5324 2198 00000000 		.word	.LANCHOR3
 5325 219c 00000000 		.word	.LANCHOR2
 5326 21a0 D0090000 		.word	.LC71
 5327 21a4 00000000 		.word	buffer
 5328 21a8 E8090000 		.word	.LC72
 5329 21ac EC090000 		.word	.LC73
 5330 21b0 640B0000 		.word	.LC97
 5331 21b4 00000000 		.word	.LANCHOR27
 5332 21b8 00000000 		.word	.LANCHOR30
 5333 21bc 2C0A0000 		.word	.LC74
 5334 21c0 380A0000 		.word	.LC75
 5335 21c4 3C0A0000 		.word	.LC76
 5336 21c8 500A0000 		.word	.LC77
 5337 21cc 6C0A0000 		.word	.LC78
 5338 21d0 300B0000 		.word	.LC94
 5339              	.L815:
 5340              		.loc 1 1076 0
 5341 21d4 0146     		mov	r1, r0
 5342 21d6 1846     		mov	r0, r3
 5343 21d8 FFF7FEFF 		bl	e_set_led
 5344              	.LVL492:
 5345              		.loc 1 1077 0
 5346 21dc FEF77CB9 		b	.L61
 5347              	.L152:
 5348              		.loc 1 890 0
 5349 21e0 FFF7FEFF 		bl	VL53L0X_start
 5350              	.LVL493:
 5351 21e4 FEF7C1BB 		b	.L153
 5352              	.LVL494:
 5353              	.L812:
 5354              		.loc 1 457 0
 5355 21e8 FFF7FEFF 		bl	getTemperature
 5356              	.LVL495:
 5357 21ec DAF80030 		ldr	r3, [r10]
 5358 21f0 5A1C     		adds	r2, r3, #1
ARM GAS  C:\Users\marwa\AppData\Local\Temp\ccNqFJyR.s 			page 95


 5359 21f2 E054     		strb	r0, [r4, r3]
 5360 21f4 CAF80020 		str	r2, [r10]
 5361 21f8 FEF7AFBC 		b	.L99
 5362              	.L811:
 5363              		.loc 1 425 0
 5364 21fc C94D     		ldr	r5, .L854
 5365 21fe CA4E     		ldr	r6, .L854+4
 5366 2200 CA48     		ldr	r0, .L854+8
 5367 2202 2A46     		mov	r2, r5
 5368 2204 3146     		mov	r1, r6
 5369 2206 FFF7FEFF 		bl	getAllAxesGyro
 5370              	.LVL496:
 5371              		.loc 1 426 0
 5372 220a C84A     		ldr	r2, .L854+8
 5373 220c DAF80030 		ldr	r3, [r10]
 5374 2210 1168     		ldr	r1, [r2]
 5375              		.loc 1 428 0
 5376 2212 3668     		ldr	r6, [r6]
 5377              		.loc 1 430 0
 5378 2214 2868     		ldr	r0, [r5]
 5379              		.loc 1 426 0
 5380 2216 E154     		strb	r1, [r4, r3]
 5381              		.loc 1 427 0
 5382 2218 E218     		adds	r2, r4, r3
 5383 221a 0912     		asrs	r1, r1, #8
 5384              		.loc 1 429 0
 5385 221c 4FEA262C 		asr	ip, r6, #8
 5386              		.loc 1 431 0
 5387 2220 0633     		adds	r3, r3, #6
 5388 2222 0512     		asrs	r5, r0, #8
 5389              		.loc 1 427 0
 5390 2224 5170     		strb	r1, [r2, #1]
 5391              		.loc 1 428 0
 5392 2226 9670     		strb	r6, [r2, #2]
 5393              		.loc 1 429 0
 5394 2228 82F803C0 		strb	ip, [r2, #3]
 5395              		.loc 1 430 0
 5396 222c 1071     		strb	r0, [r2, #4]
 5397              		.loc 1 431 0
 5398 222e 5571     		strb	r5, [r2, #5]
 5399 2230 CAF80030 		str	r3, [r10]
 5400 2234 FEF76EBC 		b	.L96
 5401              	.LVL497:
 5402              	.L810:
 5403              		.loc 1 387 0
 5404 2238 FFF7FEFF 		bl	e_read_acc_spheric
 5405              	.LVL498:
 5406 223c BC4B     		ldr	r3, .L854+12
 5407 223e DAF80020 		ldr	r2, [r10]
 5408 2242 83ED000A 		vstr.32	s0, [r3]
 5409 2246 5978     		ldrb	r1, [r3, #1]	@ zero_extendqisi2
 5410 2248 C3ED010A 		vstr.32	s1, [r3, #4]
 5411 224c 0D46     		mov	r5, r1
 5412 224e 9978     		ldrb	r1, [r3, #2]	@ zero_extendqisi2
 5413 2250 0E91     		str	r1, [sp, #56]
 5414 2252 9979     		ldrb	r1, [r3, #6]	@ zero_extendqisi2
 5415 2254 83ED021A 		vstr.32	s2, [r3, #8]
ARM GAS  C:\Users\marwa\AppData\Local\Temp\ccNqFJyR.s 			page 96


 5416 2258 0F91     		str	r1, [sp, #60]
 5417 225a D979     		ldrb	r1, [r3, #7]	@ zero_extendqisi2
 5418 225c 1091     		str	r1, [sp, #64]
 5419 225e 197A     		ldrb	r1, [r3, #8]	@ zero_extendqisi2
 5420 2260 1191     		str	r1, [sp, #68]
 5421 2262 597A     		ldrb	r1, [r3, #9]	@ zero_extendqisi2
 5422 2264 1291     		str	r1, [sp, #72]
 5423 2266 997A     		ldrb	r1, [r3, #10]	@ zero_extendqisi2
 5424 2268 1391     		str	r1, [sp, #76]
 5425 226a 1878     		ldrb	r0, [r3]	@ zero_extendqisi2
 5426 226c 93F803E0 		ldrb	lr, [r3, #3]	@ zero_extendqisi2
 5427 2270 93F804C0 		ldrb	ip, [r3, #4]	@ zero_extendqisi2
 5428 2274 5E79     		ldrb	r6, [r3, #5]	@ zero_extendqisi2
 5429 2276 D97A     		ldrb	r1, [r3, #11]	@ zero_extendqisi2
 5430 2278 FEF71FBC 		b	.L94
 5431              	.LVL499:
 5432              	.L814:
 5433              		.loc 1 523 0
 5434 227c FFF7FEFF 		bl	sdio_connect
 5435              	.LVL500:
 5436              		.loc 1 524 0
 5437 2280 DAF80030 		ldr	r3, [r10]
 5438              		.loc 1 523 0
 5439 2284 B0FA80F0 		clz	r0, r0
 5440 2288 4009     		lsrs	r0, r0, #5
 5441              		.loc 1 524 0
 5442 228a 5A1C     		adds	r2, r3, #1
 5443              		.loc 1 523 0
 5444 228c E054     		strb	r0, [r4, r3]
 5445              		.loc 1 524 0
 5446 228e CAF80020 		str	r2, [r10]
 5447              		.loc 1 525 0
 5448 2292 FFF7FEFF 		bl	sdio_disconnect
 5449              	.LVL501:
 5450 2296 DAF80060 		ldr	r6, [r10]
 5451 229a FEF7E7BC 		b	.L105
 5452              	.L813:
 5453              		.loc 1 483 0
 5454 229e FFF7FEFF 		bl	VL53L0X_get_dist_mm
 5455              	.LVL502:
 5456              		.loc 1 484 0
 5457 22a2 DAF80030 		ldr	r3, [r10]
 5458              		.loc 1 485 0
 5459 22a6 E218     		adds	r2, r4, r3
 5460              		.loc 1 484 0
 5461 22a8 E054     		strb	r0, [r4, r3]
 5462              		.loc 1 485 0
 5463 22aa 0112     		asrs	r1, r0, #8
 5464 22ac 0233     		adds	r3, r3, #2
 5465 22ae 5170     		strb	r1, [r2, #1]
 5466 22b0 CAF80030 		str	r3, [r10]
 5467 22b4 FEF780BC 		b	.L103
 5468              	.LVL503:
 5469              	.L796:
 5470              		.loc 1 695 0
 5471 22b8 41F65071 		movw	r1, #8016
 5472 22bc 42F61430 		movw	r0, #11028
ARM GAS  C:\Users\marwa\AppData\Local\Temp\ccNqFJyR.s 			page 97


 5473 22c0 FFF7FEFF 		bl	e_play_sound
 5474              	.LVL504:
 5475 22c4 9DF86230 		ldrb	r3, [sp, #98]	@ zero_extendqisi2
 5476 22c8 FEF700B9 		b	.L129
 5477              	.L795:
 5478              		.loc 1 691 0
 5479 22cc 40F69461 		movw	r1, #3732
 5480 22d0 41F67E40 		movw	r0, #7294
 5481 22d4 FFF7FEFF 		bl	e_play_sound
 5482              	.LVL505:
 5483 22d8 9DF86230 		ldrb	r3, [sp, #98]	@ zero_extendqisi2
 5484 22dc FEF7F3B8 		b	.L128
 5485              	.L794:
 5486              		.loc 1 687 0
 5487 22e0 0022     		movs	r2, #0
 5488 22e2 0221     		movs	r1, #2
 5489 22e4 0B20     		movs	r0, #11
 5490 22e6 FFF7FEFF 		bl	playMelody
 5491              	.LVL506:
 5492 22ea 9DF86230 		ldrb	r3, [sp, #98]	@ zero_extendqisi2
 5493 22ee FEF7E7B8 		b	.L127
 5494              	.L793:
 5495              		.loc 1 683 0
 5496 22f2 0022     		movs	r2, #0
 5497 22f4 0221     		movs	r1, #2
 5498 22f6 0420     		movs	r0, #4
 5499 22f8 FFF7FEFF 		bl	playMelody
 5500              	.LVL507:
 5501 22fc 9DF86230 		ldrb	r3, [sp, #98]	@ zero_extendqisi2
 5502 2300 FEF7DBB8 		b	.L126
 5503              	.L792:
 5504              		.loc 1 678 0
 5505 2304 0020     		movs	r0, #0
 5506 2306 FFF7FEFF 		bl	set_object_found
 5507              	.LVL508:
 5508              		.loc 1 679 0
 5509 230a 0020     		movs	r0, #0
 5510 230c FFF7FEFF 		bl	set_object_close
 5511              	.LVL509:
 5512 2310 9DF86230 		ldrb	r3, [sp, #98]	@ zero_extendqisi2
 5513 2314 FEF7CEB8 		b	.L125
 5514              	.L791:
 5515              		.loc 1 600 0
 5516 2318 FFF7FEFF 		bl	disable_obstacle_avoidance
 5517              	.LVL510:
 5518 231c FEF75BB8 		b	.L112
 5519              	.LVL511:
 5520              	.L308:
 5521              	.LBB6:
 5522              		.loc 1 1513 0
 5523 2320 844B     		ldr	r3, .L854+16
 5524              	.L778:
 5525 2322 03CB     		ldmia	r3!, {r0, r1}
 5526 2324 1B88     		ldrh	r3, [r3]	@ unaligned
 5527 2326 2B81     		strh	r3, [r5, #8]	@ unaligned
 5528 2328 2860     		str	r0, [r5]	@ unaligned
 5529 232a 6960     		str	r1, [r5, #4]	@ unaligned
ARM GAS  C:\Users\marwa\AppData\Local\Temp\ccNqFJyR.s 			page 98


 5530 232c FDF7AEBE 		b	.L18
 5531              	.LVL512:
 5532              	.L435:
 5533              		.loc 1 1942 0
 5534 2330 814B     		ldr	r3, .L854+20
 5535 2332 1868     		ldr	r0, [r3]
 5536 2334 9B88     		ldrh	r3, [r3, #4]	@ unaligned
 5537 2336 2860     		str	r0, [r5]	@ unaligned
 5538 2338 AB80     		strh	r3, [r5, #4]	@ unaligned
 5539 233a FDF7A7BE 		b	.L18
 5540              	.L443:
 5541              		.loc 1 1983 0
 5542 233e 7F4B     		ldr	r3, .L854+24
 5543 2340 7F49     		ldr	r1, .L854+28
 5544 2342 1A68     		ldr	r2, [r3]
 5545 2344 7F48     		ldr	r0, .L854+32
 5546 2346 FFF7FEFF 		bl	sprintf
 5547              	.LVL513:
 5548 234a FDF79FBE 		b	.L18
 5549              	.L394:
 5550              		.loc 1 1727 0
 5551 234e 0121     		movs	r1, #1
 5552 2350 0820     		movs	r0, #8
 5553 2352 FFF7FEFF 		bl	e_set_led
 5554              	.LVL514:
 5555              		.loc 1 1730 0
 5556 2356 4FF4C870 		mov	r0, #400
 5557 235a FFF7FEFF 		bl	chThdSleep
 5558              	.LVL515:
 5559              		.loc 1 1731 0
 5560 235e FFF7FEFF 		bl	e_led_clear
 5561              	.LVL516:
 5562              		.loc 1 1734 0
 5563 2362 6420     		movs	r0, #100
 5564 2364 FFF7FEFF 		bl	chThdSleep
 5565              	.LVL517:
 5566              		.loc 1 1735 0
 5567 2368 FFF7FEFF 		bl	e_calibrate_ir
 5568              	.LVL518:
 5569 236c FDF78EBE 		b	.L18
 5570              	.LVL519:
 5571              	.L282:
 5572              		.loc 1 1387 0
 5573 2370 754B     		ldr	r3, .L854+36
 5574 2372 D6E7     		b	.L778
 5575              	.LVL520:
 5576              	.L425:
 5577              		.loc 1 1902 0
 5578 2374 0022     		movs	r2, #0
 5579 2376 0221     		movs	r1, #2
 5580 2378 0320     		movs	r0, #3
 5581 237a FFF7FEFF 		bl	playMelody
 5582              	.LVL521:
 5583              	.L431:
 5584              		.loc 1 1922 0
 5585 237e B9F1000F 		cmp	r9, #0
 5586 2382 7DF483AE 		bne	.L18
ARM GAS  C:\Users\marwa\AppData\Local\Temp\ccNqFJyR.s 			page 99


 5587              		.loc 1 1925 0
 5588 2386 079B     		ldr	r3, [sp, #28]
 5589              		.loc 1 1927 0
 5590 2388 7048     		ldr	r0, .L854+40
 5591 238a 0321     		movs	r1, #3
 5592              		.loc 1 1925 0
 5593 238c 002B     		cmp	r3, #0
 5594 238e 00F05182 		beq	.L432
 5595              		.loc 1 1927 0
 5596 2392 FFF7FEFF 		bl	e_send_uart1_char
 5597              	.LVL522:
 5598              	.L433:
 5599              		.loc 1 1927 0 is_stmt 0 discriminator 2
 5600 2396 FFF7FEFF 		bl	e_uart1_sending
 5601              	.LVL523:
 5602 239a 0028     		cmp	r0, #0
 5603 239c FBD1     		bne	.L433
 5604 239e FDF775BE 		b	.L18
 5605              	.L430:
 5606              		.loc 1 1914 0 is_stmt 1
 5607 23a2 41F65071 		movw	r1, #8016
 5608 23a6 42F61430 		movw	r0, #11028
 5609 23aa FFF7FEFF 		bl	e_play_sound
 5610              	.LVL524:
 5611              		.loc 1 1915 0
 5612 23ae E6E7     		b	.L431
 5613              	.L428:
 5614              		.loc 1 1908 0
 5615 23b0 0022     		movs	r2, #0
 5616 23b2 0221     		movs	r1, #2
 5617 23b4 0B20     		movs	r0, #11
 5618 23b6 FFF7FEFF 		bl	playMelody
 5619              	.LVL525:
 5620              		.loc 1 1909 0
 5621 23ba E0E7     		b	.L431
 5622              	.L427:
 5623              		.loc 1 1905 0
 5624 23bc 0022     		movs	r2, #0
 5625 23be 0221     		movs	r1, #2
 5626 23c0 0420     		movs	r0, #4
 5627 23c2 FFF7FEFF 		bl	playMelody
 5628              	.LVL526:
 5629              		.loc 1 1906 0
 5630 23c6 DAE7     		b	.L431
 5631              	.L429:
 5632              		.loc 1 1911 0
 5633 23c8 40F69461 		movw	r1, #3732
 5634 23cc 41F67E40 		movw	r0, #7294
 5635 23d0 FFF7FEFF 		bl	e_play_sound
 5636              	.LVL527:
 5637              		.loc 1 1912 0
 5638 23d4 D3E7     		b	.L431
 5639              	.LVL528:
 5640              	.L806:
 5641              	.LBE6:
 5642              		.loc 1 805 0
 5643 23d6 FFF7FEFF 		bl	mpu9250_magnetometer_setup
ARM GAS  C:\Users\marwa\AppData\Local\Temp\ccNqFJyR.s 			page 100


 5644              	.LVL529:
 5645 23da FEF7C6BA 		b	.L153
 5646              	.LVL530:
 5647              	.L787:
 5648              	.LBB7:
 5649              		.loc 1 1402 0
 5650 23de FFF7FEFF 		bl	getBatteryValueRaw
 5651              	.LVL531:
 5652 23e2 0446     		mov	r4, r0
 5653 23e4 FFF7FEFF 		bl	getBatteryValuePercentage
 5654              	.LVL532:
 5655 23e8 2246     		mov	r2, r4
 5656 23ea 0346     		mov	r3, r0
 5657 23ec 5849     		ldr	r1, .L854+44
 5658 23ee 5548     		ldr	r0, .L854+32
 5659 23f0 FFF7FEFF 		bl	sprintf
 5660              	.LVL533:
 5661              	.L475:
 5662 23f4 5348     		ldr	r0, .L854+32
 5663 23f6 FFF7FEFF 		bl	strlen
 5664              	.LVL534:
 5665              		.loc 1 1406 0
 5666 23fa 079B     		ldr	r3, [sp, #28]
 5667 23fc 0146     		mov	r1, r0
 5668              		.loc 1 1408 0
 5669 23fe 5148     		ldr	r0, .L854+32
 5670              		.loc 1 1406 0
 5671 2400 002B     		cmp	r3, #0
 5672 2402 00F0C281 		beq	.L287
 5673              		.loc 1 1408 0
 5674 2406 FFF7FEFF 		bl	e_send_uart1_char
 5675              	.LVL535:
 5676              	.L288:
 5677              		.loc 1 1408 0 is_stmt 0 discriminator 2
 5678 240a FFF7FEFF 		bl	e_uart1_sending
 5679              	.LVL536:
 5680 240e 0028     		cmp	r0, #0
 5681 2410 FBD1     		bne	.L288
 5682 2412 FDF73BBE 		b	.L18
 5683              	.L462:
 5684              		.loc 1 2057 0 is_stmt 1
 5685 2416 FFF7FEFF 		bl	strlen
 5686              	.LVL537:
 5687 241a 0146     		mov	r1, r0
 5688 241c 3046     		mov	r0, r6
 5689 241e FFF7FEFF 		bl	e_send_uart2_char
 5690              	.LVL538:
 5691              	.L464:
 5692              		.loc 1 2057 0 is_stmt 0 discriminator 2
 5693 2422 FFF7FEFF 		bl	e_uart2_sending
 5694              	.LVL539:
 5695 2426 0028     		cmp	r0, #0
 5696 2428 FBD1     		bne	.L464
 5697 242a FFF709B9 		b	.L461
 5698              	.LVL540:
 5699              	.L147:
 5700              	.LBE7:
ARM GAS  C:\Users\marwa\AppData\Local\Temp\ccNqFJyR.s 			page 101


 5701              		.loc 1 826 0 is_stmt 1
 5702 242e 4948     		ldr	r0, .L854+48
 5703 2430 D0F85432 		ldr	r3, [r0, #596]
 5704 2434 1B68     		ldr	r3, [r3]
 5705 2436 1B78     		ldrb	r3, [r3]	@ zero_extendqisi2
 5706 2438 042B     		cmp	r3, #4
 5707 243a 04D1     		bne	.L148
 5708              		.loc 1 828 0
 5709 243c 0368     		ldr	r3, [r0]
 5710 243e 0122     		movs	r2, #1
 5711 2440 5B68     		ldr	r3, [r3, #4]
 5712 2442 14A9     		add	r1, sp, #80
 5713 2444 9847     		blx	r3
 5714              	.LVL541:
 5715              	.L148:
 5716              		.loc 1 831 0
 5717 2446 0A20     		movs	r0, #10
 5718 2448 FFF7FEFF 		bl	chThdSleep
 5719              	.LVL542:
 5720 244c FEF7C8BD 		b	.L146
 5721              	.L142:
 5722              		.loc 1 786 0
 5723 2450 4048     		ldr	r0, .L854+48
 5724 2452 D0F85432 		ldr	r3, [r0, #596]
 5725 2456 1B68     		ldr	r3, [r3]
 5726 2458 1B78     		ldrb	r3, [r3]	@ zero_extendqisi2
 5727 245a 042B     		cmp	r3, #4
 5728 245c 04D1     		bne	.L143
 5729              		.loc 1 788 0
 5730 245e 0368     		ldr	r3, [r0]
 5731 2460 0122     		movs	r2, #1
 5732 2462 5B68     		ldr	r3, [r3, #4]
 5733 2464 14A9     		add	r1, sp, #80
 5734 2466 9847     		blx	r3
 5735              	.LVL543:
 5736              	.L143:
 5737              		.loc 1 791 0
 5738 2468 0A20     		movs	r0, #10
 5739 246a FFF7FEFF 		bl	chThdSleep
 5740              	.LVL544:
 5741 246e FEF772BA 		b	.L141
 5742              	.L150:
 5743              		.loc 1 867 0
 5744 2472 3848     		ldr	r0, .L854+48
 5745 2474 D0F85432 		ldr	r3, [r0, #596]
 5746 2478 1B68     		ldr	r3, [r3]
 5747 247a 1B78     		ldrb	r3, [r3]	@ zero_extendqisi2
 5748 247c 042B     		cmp	r3, #4
 5749 247e 04D1     		bne	.L151
 5750              		.loc 1 869 0
 5751 2480 0368     		ldr	r3, [r0]
 5752 2482 0122     		movs	r2, #1
 5753 2484 5B68     		ldr	r3, [r3, #4]
 5754 2486 14A9     		add	r1, sp, #80
 5755 2488 9847     		blx	r3
 5756              	.LVL545:
 5757              	.L151:
ARM GAS  C:\Users\marwa\AppData\Local\Temp\ccNqFJyR.s 			page 102


 5758              		.loc 1 872 0
 5759 248a 0A20     		movs	r0, #10
 5760 248c FFF7FEFF 		bl	chThdSleep
 5761              	.LVL546:
 5762 2490 FEF78EBD 		b	.L149
 5763              	.LVL547:
 5764              	.L382:
 5765              	.LBB8:
 5766              		.loc 1 1677 0
 5767 2494 FFF7FEFF 		bl	get_object_found
 5768              	.LVL548:
 5769              		.loc 1 1676 0
 5770 2498 0028     		cmp	r0, #0
 5771 249a 7DF4F7AD 		bne	.L18
 5772              		.loc 1 1677 0
 5773 249e FFF7FEFF 		bl	get_demo15_state_1
 5774              	.LVL549:
 5775 24a2 0028     		cmp	r0, #0
 5776 24a4 7FF4E8AC 		bne	.L385
 5777 24a8 FDF7F0BD 		b	.L18
 5778              	.L420:
 5779              		.loc 1 1889 0
 5780 24ac FFF7FEFF 		bl	e_send_uart2_char
 5781              	.LVL550:
 5782              	.L422:
 5783              		.loc 1 1889 0 is_stmt 0 discriminator 2
 5784 24b0 FFF7FEFF 		bl	e_uart2_sending
 5785              	.LVL551:
 5786 24b4 0028     		cmp	r0, #0
 5787 24b6 FBD1     		bne	.L422
 5788 24b8 FDF7E8BD 		b	.L18
 5789              	.L444:
 5790              		.loc 1 1981 0 is_stmt 1
 5791 24bc FFF7FEFF 		bl	e_send_uart2_char
 5792              	.LVL552:
 5793              	.L447:
 5794              		.loc 1 1981 0 is_stmt 0 discriminator 2
 5795 24c0 FFF7FEFF 		bl	e_uart2_sending
 5796              	.LVL553:
 5797 24c4 0028     		cmp	r0, #0
 5798 24c6 FBD1     		bne	.L447
 5799              		.loc 1 1983 0 is_stmt 1
 5800 24c8 1C4B     		ldr	r3, .L854+24
 5801 24ca 1D49     		ldr	r1, .L854+28
 5802 24cc 1A68     		ldr	r2, [r3]
 5803 24ce 1D48     		ldr	r0, .L854+32
 5804 24d0 FFF7FEFF 		bl	sprintf
 5805              	.LVL554:
 5806              		.loc 1 1993 0
 5807 24d4 1B48     		ldr	r0, .L854+32
 5808 24d6 FFF7FEFF 		bl	strlen
 5809              	.LVL555:
 5810 24da 0146     		mov	r1, r0
 5811 24dc 1948     		ldr	r0, .L854+32
 5812 24de FFF7FEFF 		bl	e_send_uart2_char
 5813              	.LVL556:
 5814              	.L450:
ARM GAS  C:\Users\marwa\AppData\Local\Temp\ccNqFJyR.s 			page 103


 5815              		.loc 1 1993 0 is_stmt 0 discriminator 2
 5816 24e2 FFF7FEFF 		bl	e_uart2_sending
 5817              	.LVL557:
 5818 24e6 0028     		cmp	r0, #0
 5819 24e8 FBD1     		bne	.L450
 5820 24ea FDF7CFBD 		b	.L18
 5821              	.LVL558:
 5822              	.L789:
 5823              		.loc 1 1524 0 is_stmt 1
 5824 24ee 1548     		ldr	r0, .L854+32
 5825 24f0 FFF7FEFF 		bl	strlen
 5826              	.LVL559:
 5827 24f4 0146     		mov	r1, r0
 5828 24f6 1348     		ldr	r0, .L854+32
 5829 24f8 FFF7FEFF 		bl	e_send_uart2_char
 5830              	.LVL560:
 5831              	.L312:
 5832              		.loc 1 1524 0 is_stmt 0 discriminator 2
 5833 24fc FFF7FEFF 		bl	e_uart2_sending
 5834              	.LVL561:
 5835 2500 0028     		cmp	r0, #0
 5836 2502 FBD1     		bne	.L312
 5837 2504 FDF7C2BD 		b	.L18
 5838              	.LVL562:
 5839              	.L823:
 5840              		.loc 1 1953 0 is_stmt 1
 5841 2508 0E48     		ldr	r0, .L854+32
 5842 250a FFF7FEFF 		bl	strlen
 5843              	.LVL563:
 5844 250e 0146     		mov	r1, r0
 5845 2510 0C48     		ldr	r0, .L854+32
 5846 2512 FFF7FEFF 		bl	e_send_uart2_char
 5847              	.LVL564:
 5848              	.L439:
 5849              		.loc 1 1953 0 is_stmt 0 discriminator 2
 5850 2516 FFF7FEFF 		bl	e_uart2_sending
 5851              	.LVL565:
 5852 251a 0028     		cmp	r0, #0
 5853 251c FBD1     		bne	.L439
 5854 251e FDF7B5BD 		b	.L18
 5855              	.L855:
 5856 2522 00BF     		.align	2
 5857              	.L854:
 5858 2524 00000000 		.word	.LANCHOR15
 5859 2528 00000000 		.word	.LANCHOR16
 5860 252c 00000000 		.word	.LANCHOR17
 5861 2530 00000000 		.word	.LANCHOR14
 5862 2534 08010000 		.word	.LC14
 5863 2538 BC0A0000 		.word	.LC86
 5864 253c 00000000 		.word	.LANCHOR1
 5865 2540 480B0000 		.word	.LC95
 5866 2544 00000000 		.word	buffer
 5867 2548 6C000000 		.word	.LC2
 5868 254c B00A0000 		.word	.LC84
 5869 2550 78000000 		.word	.LC3
 5870 2554 00000000 		.word	SDU1
 5871              	.LVL566:
ARM GAS  C:\Users\marwa\AppData\Local\Temp\ccNqFJyR.s 			page 104


 5872              	.L417:
 5873              		.loc 1 1865 0 is_stmt 1
 5874 2558 FFF7FEFF 		bl	e_send_uart2_char
 5875              	.LVL567:
 5876              	.L419:
 5877              		.loc 1 1865 0 is_stmt 0 discriminator 2
 5878 255c FFF7FEFF 		bl	e_uart2_sending
 5879              	.LVL568:
 5880 2560 0028     		cmp	r0, #0
 5881 2562 FBD1     		bne	.L419
 5882 2564 FDF792BD 		b	.L18
 5883              	.L414:
 5884              		.loc 1 1851 0 is_stmt 1
 5885 2568 FFF7FEFF 		bl	e_send_uart2_char
 5886              	.LVL569:
 5887              	.L416:
 5888              		.loc 1 1851 0 is_stmt 0 discriminator 2
 5889 256c FFF7FEFF 		bl	e_uart2_sending
 5890              	.LVL570:
 5891 2570 0028     		cmp	r0, #0
 5892 2572 FBD1     		bne	.L416
 5893 2574 FDF78ABD 		b	.L18
 5894              	.LVL571:
 5895              	.L313:
 5896              		.loc 1 1619 0 is_stmt 1
 5897 2578 FFF7FEFF 		bl	e_send_uart2_char
 5898              	.LVL572:
 5899              	.L347:
 5900              		.loc 1 1619 0 is_stmt 0 discriminator 2
 5901 257c FFF7FEFF 		bl	e_uart2_sending
 5902              	.LVL573:
 5903 2580 0028     		cmp	r0, #0
 5904 2582 FBD1     		bne	.L347
 5905              		.loc 1 1620 0 is_stmt 1
 5906 2584 FFF7FEFF 		bl	isEpuckVersion1_3
 5907              	.LVL574:
 5908 2588 0028     		cmp	r0, #0
 5909 258a 00F0F381 		beq	.L829
 5910              	.L348:
 5911              		.loc 1 1624 0
 5912 258e FFF7FEFF 		bl	isEpuckVersion1_3
 5913              	.LVL575:
 5914 2592 0028     		cmp	r0, #0
 5915 2594 00F0DB81 		beq	.L350
 5916              		.loc 1 1626 0
 5917 2598 1921     		movs	r1, #25
 5918 259a BD48     		ldr	r0, .L856
 5919 259c FFF7FEFF 		bl	e_send_uart2_char
 5920              	.LVL576:
 5921              	.L351:
 5922              		.loc 1 1626 0 is_stmt 0 discriminator 2
 5923 25a0 FFF7FEFF 		bl	e_uart2_sending
 5924              	.LVL577:
 5925 25a4 0028     		cmp	r0, #0
 5926 25a6 FBD1     		bne	.L351
 5927              	.L352:
 5928              		.loc 1 1632 0 is_stmt 1
ARM GAS  C:\Users\marwa\AppData\Local\Temp\ccNqFJyR.s 			page 105


 5929 25a8 2B21     		movs	r1, #43
 5930 25aa BA48     		ldr	r0, .L856+4
 5931 25ac FFF7FEFF 		bl	e_send_uart2_char
 5932              	.LVL578:
 5933              	.L354:
 5934              		.loc 1 1632 0 is_stmt 0 discriminator 2
 5935 25b0 FFF7FEFF 		bl	e_uart2_sending
 5936              	.LVL579:
 5937 25b4 0028     		cmp	r0, #0
 5938 25b6 FBD1     		bne	.L354
 5939              		.loc 1 1633 0 is_stmt 1
 5940 25b8 1D21     		movs	r1, #29
 5941 25ba B748     		ldr	r0, .L856+8
 5942 25bc FFF7FEFF 		bl	e_send_uart2_char
 5943              	.LVL580:
 5944              	.L355:
 5945              		.loc 1 1633 0 is_stmt 0 discriminator 2
 5946 25c0 FFF7FEFF 		bl	e_uart2_sending
 5947              	.LVL581:
 5948 25c4 0028     		cmp	r0, #0
 5949 25c6 FBD1     		bne	.L355
 5950              		.loc 1 1634 0 is_stmt 1
 5951 25c8 2621     		movs	r1, #38
 5952 25ca B448     		ldr	r0, .L856+12
 5953 25cc FFF7FEFF 		bl	e_send_uart2_char
 5954              	.LVL582:
 5955              	.L356:
 5956              		.loc 1 1634 0 is_stmt 0 discriminator 2
 5957 25d0 FFF7FEFF 		bl	e_uart2_sending
 5958              	.LVL583:
 5959 25d4 0028     		cmp	r0, #0
 5960 25d6 FBD1     		bne	.L356
 5961              		.loc 1 1635 0 is_stmt 1
 5962 25d8 2621     		movs	r1, #38
 5963 25da B148     		ldr	r0, .L856+16
 5964 25dc FFF7FEFF 		bl	e_send_uart2_char
 5965              	.LVL584:
 5966              	.L357:
 5967              		.loc 1 1635 0 is_stmt 0 discriminator 2
 5968 25e0 FFF7FEFF 		bl	e_uart2_sending
 5969              	.LVL585:
 5970 25e4 0028     		cmp	r0, #0
 5971 25e6 FBD1     		bne	.L357
 5972              		.loc 1 1636 0 is_stmt 1
 5973 25e8 2C21     		movs	r1, #44
 5974 25ea AE48     		ldr	r0, .L856+20
 5975 25ec FFF7FEFF 		bl	e_send_uart2_char
 5976              	.LVL586:
 5977              	.L358:
 5978              		.loc 1 1636 0 is_stmt 0 discriminator 2
 5979 25f0 FFF7FEFF 		bl	e_uart2_sending
 5980              	.LVL587:
 5981 25f4 0028     		cmp	r0, #0
 5982 25f6 FBD1     		bne	.L358
 5983              		.loc 1 1638 0 is_stmt 1
 5984 25f8 1721     		movs	r1, #23
 5985 25fa AB48     		ldr	r0, .L856+24
ARM GAS  C:\Users\marwa\AppData\Local\Temp\ccNqFJyR.s 			page 106


 5986 25fc FFF7FEFF 		bl	e_send_uart2_char
 5987              	.LVL588:
 5988              	.L359:
 5989              		.loc 1 1638 0 is_stmt 0 discriminator 2
 5990 2600 FFF7FEFF 		bl	e_uart2_sending
 5991              	.LVL589:
 5992 2604 0028     		cmp	r0, #0
 5993 2606 FBD1     		bne	.L359
 5994              		.loc 1 1640 0 is_stmt 1
 5995 2608 1021     		movs	r1, #16
 5996 260a A848     		ldr	r0, .L856+28
 5997 260c FFF7FEFF 		bl	e_send_uart2_char
 5998              	.LVL590:
 5999              	.L360:
 6000              		.loc 1 1640 0 is_stmt 0 discriminator 2
 6001 2610 FFF7FEFF 		bl	e_uart2_sending
 6002              	.LVL591:
 6003 2614 0028     		cmp	r0, #0
 6004 2616 FBD1     		bne	.L360
 6005              		.loc 1 1641 0 is_stmt 1
 6006 2618 2221     		movs	r1, #34
 6007 261a A548     		ldr	r0, .L856+32
 6008 261c FFF7FEFF 		bl	e_send_uart2_char
 6009              	.LVL592:
 6010              	.L361:
 6011              		.loc 1 1641 0 is_stmt 0 discriminator 2
 6012 2620 FFF7FEFF 		bl	e_uart2_sending
 6013              	.LVL593:
 6014 2624 0028     		cmp	r0, #0
 6015 2626 FBD1     		bne	.L361
 6016              		.loc 1 1642 0 is_stmt 1
 6017 2628 4D21     		movs	r1, #77
 6018 262a A248     		ldr	r0, .L856+36
 6019 262c FFF7FEFF 		bl	e_send_uart2_char
 6020              	.LVL594:
 6021              	.L362:
 6022              		.loc 1 1642 0 is_stmt 0 discriminator 2
 6023 2630 FFF7FEFF 		bl	e_uart2_sending
 6024              	.LVL595:
 6025 2634 0028     		cmp	r0, #0
 6026 2636 FBD1     		bne	.L362
 6027              		.loc 1 1643 0 is_stmt 1
 6028 2638 2721     		movs	r1, #39
 6029 263a 9F48     		ldr	r0, .L856+40
 6030 263c FFF7FEFF 		bl	e_send_uart2_char
 6031              	.LVL596:
 6032              	.L363:
 6033              		.loc 1 1643 0 is_stmt 0 discriminator 2
 6034 2640 FFF7FEFF 		bl	e_uart2_sending
 6035              	.LVL597:
 6036 2644 0028     		cmp	r0, #0
 6037 2646 FBD1     		bne	.L363
 6038              		.loc 1 1644 0 is_stmt 1
 6039 2648 2B21     		movs	r1, #43
 6040 264a 9C48     		ldr	r0, .L856+44
 6041 264c FFF7FEFF 		bl	e_send_uart2_char
 6042              	.LVL598:
ARM GAS  C:\Users\marwa\AppData\Local\Temp\ccNqFJyR.s 			page 107


 6043              	.L364:
 6044              		.loc 1 1644 0 is_stmt 0 discriminator 2
 6045 2650 FFF7FEFF 		bl	e_uart2_sending
 6046              	.LVL599:
 6047 2654 0028     		cmp	r0, #0
 6048 2656 FBD1     		bne	.L364
 6049              		.loc 1 1646 0 is_stmt 1
 6050 2658 1921     		movs	r1, #25
 6051 265a 9948     		ldr	r0, .L856+48
 6052 265c FFF7FEFF 		bl	e_send_uart2_char
 6053              	.LVL600:
 6054              	.L365:
 6055              		.loc 1 1646 0 is_stmt 0 discriminator 2
 6056 2660 FFF7FEFF 		bl	e_uart2_sending
 6057              	.LVL601:
 6058 2664 0028     		cmp	r0, #0
 6059 2666 FBD1     		bne	.L365
 6060              		.loc 1 1648 0 is_stmt 1
 6061 2668 1521     		movs	r1, #21
 6062 266a 9648     		ldr	r0, .L856+52
 6063 266c FFF7FEFF 		bl	e_send_uart2_char
 6064              	.LVL602:
 6065              	.L366:
 6066              		.loc 1 1648 0 is_stmt 0 discriminator 2
 6067 2670 FFF7FEFF 		bl	e_uart2_sending
 6068              	.LVL603:
 6069 2674 0028     		cmp	r0, #0
 6070 2676 FBD1     		bne	.L366
 6071              		.loc 1 1649 0 is_stmt 1
 6072 2678 1921     		movs	r1, #25
 6073 267a 9348     		ldr	r0, .L856+56
 6074 267c FFF7FEFF 		bl	e_send_uart2_char
 6075              	.LVL604:
 6076              	.L367:
 6077              		.loc 1 1649 0 is_stmt 0 discriminator 2
 6078 2680 FFF7FEFF 		bl	e_uart2_sending
 6079              	.LVL605:
 6080 2684 0028     		cmp	r0, #0
 6081 2686 FBD1     		bne	.L367
 6082              		.loc 1 1650 0 is_stmt 1
 6083 2688 2921     		movs	r1, #41
 6084 268a 9048     		ldr	r0, .L856+60
 6085 268c FFF7FEFF 		bl	e_send_uart2_char
 6086              	.LVL606:
 6087              	.L368:
 6088              		.loc 1 1650 0 is_stmt 0 discriminator 2
 6089 2690 FFF7FEFF 		bl	e_uart2_sending
 6090              	.LVL607:
 6091 2694 0028     		cmp	r0, #0
 6092 2696 FBD1     		bne	.L368
 6093              		.loc 1 1651 0 is_stmt 1
 6094 2698 2921     		movs	r1, #41
 6095 269a 8D48     		ldr	r0, .L856+64
 6096 269c FFF7FEFF 		bl	e_send_uart2_char
 6097              	.LVL608:
 6098              	.L369:
 6099              		.loc 1 1651 0 is_stmt 0 discriminator 2
ARM GAS  C:\Users\marwa\AppData\Local\Temp\ccNqFJyR.s 			page 108


 6100 26a0 FFF7FEFF 		bl	e_uart2_sending
 6101              	.LVL609:
 6102 26a4 0028     		cmp	r0, #0
 6103 26a6 FBD1     		bne	.L369
 6104              		.loc 1 1652 0 is_stmt 1
 6105 26a8 1821     		movs	r1, #24
 6106 26aa 8A48     		ldr	r0, .L856+68
 6107 26ac FFF7FEFF 		bl	e_send_uart2_char
 6108              	.LVL610:
 6109              	.L370:
 6110              		.loc 1 1652 0 is_stmt 0 discriminator 2
 6111 26b0 FFF7FEFF 		bl	e_uart2_sending
 6112              	.LVL611:
 6113 26b4 0028     		cmp	r0, #0
 6114 26b6 FBD1     		bne	.L370
 6115              		.loc 1 1653 0 is_stmt 1
 6116 26b8 2921     		movs	r1, #41
 6117 26ba 8748     		ldr	r0, .L856+72
 6118 26bc FFF7FEFF 		bl	e_send_uart2_char
 6119              	.LVL612:
 6120              	.L371:
 6121              		.loc 1 1653 0 is_stmt 0 discriminator 2
 6122 26c0 FFF7FEFF 		bl	e_uart2_sending
 6123              	.LVL613:
 6124 26c4 0028     		cmp	r0, #0
 6125 26c6 FBD1     		bne	.L371
 6126              		.loc 1 1654 0 is_stmt 1
 6127 26c8 2C21     		movs	r1, #44
 6128 26ca 8448     		ldr	r0, .L856+76
 6129 26cc FFF7FEFF 		bl	e_send_uart2_char
 6130              	.LVL614:
 6131              	.L372:
 6132              		.loc 1 1654 0 is_stmt 0 discriminator 2
 6133 26d0 FFF7FEFF 		bl	e_uart2_sending
 6134              	.LVL615:
 6135 26d4 0028     		cmp	r0, #0
 6136 26d6 FBD1     		bne	.L372
 6137              		.loc 1 1655 0 is_stmt 1
 6138 26d8 2421     		movs	r1, #36
 6139 26da 8148     		ldr	r0, .L856+80
 6140 26dc FFF7FEFF 		bl	e_send_uart2_char
 6141              	.LVL616:
 6142              	.L373:
 6143              		.loc 1 1655 0 is_stmt 0 discriminator 2
 6144 26e0 FFF7FEFF 		bl	e_uart2_sending
 6145              	.LVL617:
 6146 26e4 0028     		cmp	r0, #0
 6147 26e6 FBD1     		bne	.L373
 6148              		.loc 1 1656 0 is_stmt 1
 6149 26e8 1D21     		movs	r1, #29
 6150 26ea 7E48     		ldr	r0, .L856+84
 6151 26ec FFF7FEFF 		bl	e_send_uart2_char
 6152              	.LVL618:
 6153              	.L374:
 6154              		.loc 1 1656 0 is_stmt 0 discriminator 2
 6155 26f0 FFF7FEFF 		bl	e_uart2_sending
 6156              	.LVL619:
ARM GAS  C:\Users\marwa\AppData\Local\Temp\ccNqFJyR.s 			page 109


 6157 26f4 0028     		cmp	r0, #0
 6158 26f6 FBD1     		bne	.L374
 6159              		.loc 1 1657 0 is_stmt 1
 6160 26f8 2521     		movs	r1, #37
 6161 26fa 7B48     		ldr	r0, .L856+88
 6162 26fc FFF7FEFF 		bl	e_send_uart2_char
 6163              	.LVL620:
 6164              	.L375:
 6165              		.loc 1 1657 0 is_stmt 0 discriminator 2
 6166 2700 FFF7FEFF 		bl	e_uart2_sending
 6167              	.LVL621:
 6168 2704 0028     		cmp	r0, #0
 6169 2706 FBD1     		bne	.L375
 6170              		.loc 1 1658 0 is_stmt 1
 6171 2708 2421     		movs	r1, #36
 6172 270a 7848     		ldr	r0, .L856+92
 6173 270c FFF7FEFF 		bl	e_send_uart2_char
 6174              	.LVL622:
 6175              	.L376:
 6176              		.loc 1 1658 0 is_stmt 0 discriminator 2
 6177 2710 FFF7FEFF 		bl	e_uart2_sending
 6178              	.LVL623:
 6179 2714 0028     		cmp	r0, #0
 6180 2716 FBD1     		bne	.L376
 6181 2718 FDF7B8BC 		b	.L18
 6182              	.L395:
 6183              		.loc 1 1724 0 is_stmt 1
 6184 271c FFF7FEFF 		bl	e_send_uart2_char
 6185              	.LVL624:
 6186              	.L398:
 6187              		.loc 1 1724 0 is_stmt 0 discriminator 2
 6188 2720 FFF7FEFF 		bl	e_uart2_sending
 6189              	.LVL625:
 6190 2724 0028     		cmp	r0, #0
 6191 2726 FBD1     		bne	.L398
 6192              		.loc 1 1727 0 is_stmt 1
 6193 2728 0121     		movs	r1, #1
 6194 272a 0820     		movs	r0, #8
 6195 272c FFF7FEFF 		bl	e_set_led
 6196              	.LVL626:
 6197              		.loc 1 1730 0
 6198 2730 4FF4C870 		mov	r0, #400
 6199 2734 FFF7FEFF 		bl	chThdSleep
 6200              	.LVL627:
 6201              		.loc 1 1731 0
 6202 2738 FFF7FEFF 		bl	e_led_clear
 6203              	.LVL628:
 6204              		.loc 1 1734 0
 6205 273c 6420     		movs	r0, #100
 6206 273e FFF7FEFF 		bl	chThdSleep
 6207              	.LVL629:
 6208              		.loc 1 1735 0
 6209 2742 FFF7FEFF 		bl	e_calibrate_ir
 6210              	.LVL630:
 6211              		.loc 1 1745 0
 6212 2746 1921     		movs	r1, #25
 6213 2748 6948     		ldr	r0, .L856+96
ARM GAS  C:\Users\marwa\AppData\Local\Temp\ccNqFJyR.s 			page 110


 6214 274a FFF7FEFF 		bl	e_send_uart2_char
 6215              	.LVL631:
 6216              	.L401:
 6217              		.loc 1 1745 0 is_stmt 0 discriminator 2
 6218 274e FFF7FEFF 		bl	e_uart2_sending
 6219              	.LVL632:
 6220 2752 0028     		cmp	r0, #0
 6221 2754 FBD1     		bne	.L401
 6222 2756 FDF799BC 		b	.L18
 6223              	.LVL633:
 6224              	.L466:
 6225              		.loc 1 2073 0 is_stmt 1
 6226 275a FFF7FEFF 		bl	e_send_uart2_char
 6227              	.LVL634:
 6228              	.L468:
 6229              		.loc 1 2073 0 is_stmt 0 discriminator 2
 6230 275e FFF7FEFF 		bl	e_uart2_sending
 6231              	.LVL635:
 6232 2762 0028     		cmp	r0, #0
 6233 2764 FBD1     		bne	.L468
 6234 2766 FDF791BC 		b	.L18
 6235              	.LVL636:
 6236              	.L290:
 6237              		.loc 1 1427 0 is_stmt 1
 6238 276a FFF7FEFF 		bl	e_send_uart2_char
 6239              	.LVL637:
 6240              	.L292:
 6241              		.loc 1 1427 0 is_stmt 0 discriminator 2
 6242 276e FFF7FEFF 		bl	e_uart2_sending
 6243              	.LVL638:
 6244 2772 0028     		cmp	r0, #0
 6245 2774 FBD1     		bne	.L292
 6246 2776 FDF789BC 		b	.L18
 6247              	.L302:
 6248              		.loc 1 1487 0 is_stmt 1
 6249 277a FFF7FEFF 		bl	e_send_uart2_char
 6250              	.LVL639:
 6251              	.L304:
 6252              		.loc 1 1487 0 is_stmt 0 discriminator 2
 6253 277e FFF7FEFF 		bl	e_uart2_sending
 6254              	.LVL640:
 6255 2782 0028     		cmp	r0, #0
 6256 2784 FBD1     		bne	.L304
 6257 2786 FDF781BC 		b	.L18
 6258              	.L287:
 6259              		.loc 1 1412 0 is_stmt 1
 6260 278a FFF7FEFF 		bl	e_send_uart2_char
 6261              	.LVL641:
 6262              	.L289:
 6263              		.loc 1 1412 0 is_stmt 0 discriminator 2
 6264 278e FFF7FEFF 		bl	e_uart2_sending
 6265              	.LVL642:
 6266 2792 0028     		cmp	r0, #0
 6267 2794 FBD1     		bne	.L289
 6268 2796 FDF779BC 		b	.L18
 6269              	.L299:
 6270              		.loc 1 1472 0 is_stmt 1
ARM GAS  C:\Users\marwa\AppData\Local\Temp\ccNqFJyR.s 			page 111


 6271 279a FFF7FEFF 		bl	e_send_uart2_char
 6272              	.LVL643:
 6273              	.L301:
 6274              		.loc 1 1472 0 is_stmt 0 discriminator 2
 6275 279e FFF7FEFF 		bl	e_uart2_sending
 6276              	.LVL644:
 6277 27a2 0028     		cmp	r0, #0
 6278 27a4 FBD1     		bne	.L301
 6279 27a6 FDF771BC 		b	.L18
 6280              	.L411:
 6281              		.loc 1 1835 0 is_stmt 1
 6282 27aa FFF7FEFF 		bl	e_send_uart2_char
 6283              	.LVL645:
 6284              	.L413:
 6285              		.loc 1 1835 0 is_stmt 0 discriminator 2
 6286 27ae FFF7FEFF 		bl	e_uart2_sending
 6287              	.LVL646:
 6288 27b2 0028     		cmp	r0, #0
 6289 27b4 FBD1     		bne	.L413
 6290 27b6 FDF769BC 		b	.L18
 6291              	.L296:
 6292              		.loc 1 1458 0 is_stmt 1
 6293 27ba FFF7FEFF 		bl	e_send_uart2_char
 6294              	.LVL647:
 6295              	.L298:
 6296              		.loc 1 1458 0 is_stmt 0 discriminator 2
 6297 27be FFF7FEFF 		bl	e_uart2_sending
 6298              	.LVL648:
 6299 27c2 0028     		cmp	r0, #0
 6300 27c4 FBD1     		bne	.L298
 6301 27c6 FDF761BC 		b	.L18
 6302              	.L402:
 6303              		.loc 1 1760 0 is_stmt 1
 6304 27ca FFF7FEFF 		bl	e_send_uart2_char
 6305              	.LVL649:
 6306              	.L404:
 6307              		.loc 1 1760 0 is_stmt 0 discriminator 2
 6308 27ce FFF7FEFF 		bl	e_uart2_sending
 6309              	.LVL650:
 6310 27d2 0028     		cmp	r0, #0
 6311 27d4 FBD1     		bne	.L404
 6312 27d6 FDF759BC 		b	.L18
 6313              	.L293:
 6314              		.loc 1 1442 0 is_stmt 1
 6315 27da FFF7FEFF 		bl	e_send_uart2_char
 6316              	.LVL651:
 6317              	.L295:
 6318              		.loc 1 1442 0 is_stmt 0 discriminator 2
 6319 27de FFF7FEFF 		bl	e_uart2_sending
 6320              	.LVL652:
 6321 27e2 0028     		cmp	r0, #0
 6322 27e4 FBD1     		bne	.L295
 6323 27e6 FDF751BC 		b	.L18
 6324              	.L408:
 6325              		.loc 1 1819 0 is_stmt 1
 6326 27ea FFF7FEFF 		bl	e_send_uart2_char
 6327              	.LVL653:
ARM GAS  C:\Users\marwa\AppData\Local\Temp\ccNqFJyR.s 			page 112


 6328              	.L410:
 6329              		.loc 1 1819 0 is_stmt 0 discriminator 2
 6330 27ee FFF7FEFF 		bl	e_uart2_sending
 6331              	.LVL654:
 6332 27f2 0028     		cmp	r0, #0
 6333 27f4 FBD1     		bne	.L410
 6334 27f6 FDF749BC 		b	.L18
 6335              	.L824:
 6336              		.loc 1 1398 0 is_stmt 1
 6337 27fa 3E48     		ldr	r0, .L856+100
 6338 27fc FFF7FEFF 		bl	strlen
 6339              	.LVL655:
 6340 2800 0146     		mov	r1, r0
 6341 2802 3C48     		ldr	r0, .L856+100
 6342 2804 FFF7FEFF 		bl	e_send_uart2_char
 6343              	.LVL656:
 6344              	.L286:
 6345              		.loc 1 1398 0 is_stmt 0 discriminator 2
 6346 2808 FFF7FEFF 		bl	e_uart2_sending
 6347              	.LVL657:
 6348 280c 0028     		cmp	r0, #0
 6349 280e FBD1     		bne	.L286
 6350 2810 FDF73CBC 		b	.L18
 6351              	.L305:
 6352              		.loc 1 1502 0 is_stmt 1
 6353 2814 FFF7FEFF 		bl	e_send_uart2_char
 6354              	.LVL658:
 6355              	.L307:
 6356              		.loc 1 1502 0 is_stmt 0 discriminator 2
 6357 2818 FFF7FEFF 		bl	e_uart2_sending
 6358              	.LVL659:
 6359 281c 0028     		cmp	r0, #0
 6360 281e FBD1     		bne	.L307
 6361 2820 FDF734BC 		b	.L18
 6362              	.L440:
 6363              		.loc 1 1968 0 is_stmt 1
 6364 2824 FFF7FEFF 		bl	e_send_uart2_char
 6365              	.LVL660:
 6366              	.L442:
 6367              		.loc 1 1968 0 is_stmt 0 discriminator 2
 6368 2828 FFF7FEFF 		bl	e_uart2_sending
 6369              	.LVL661:
 6370 282c 0028     		cmp	r0, #0
 6371 282e FBD1     		bne	.L442
 6372 2830 FDF72CBC 		b	.L18
 6373              	.L432:
 6374              		.loc 1 1931 0 is_stmt 1
 6375 2834 FFF7FEFF 		bl	e_send_uart2_char
 6376              	.LVL662:
 6377              	.L434:
 6378              		.loc 1 1931 0 is_stmt 0 discriminator 2
 6379 2838 FFF7FEFF 		bl	e_uart2_sending
 6380              	.LVL663:
 6381 283c 0028     		cmp	r0, #0
 6382 283e FBD1     		bne	.L434
 6383 2840 FDF724BC 		b	.L18
 6384              	.L454:
ARM GAS  C:\Users\marwa\AppData\Local\Temp\ccNqFJyR.s 			page 113


 6385              		.loc 1 2024 0 is_stmt 1
 6386 2844 FFF7FEFF 		bl	strlen
 6387              	.LVL664:
 6388 2848 0146     		mov	r1, r0
 6389 284a 2A48     		ldr	r0, .L856+100
 6390 284c FFF7FEFF 		bl	e_send_uart2_char
 6391              	.LVL665:
 6392              	.L457:
 6393              		.loc 1 2024 0 is_stmt 0 discriminator 2
 6394 2850 FFF7FEFF 		bl	e_uart2_sending
 6395              	.LVL666:
 6396 2854 0028     		cmp	r0, #0
 6397 2856 FBD1     		bne	.L457
 6398              		.loc 1 2026 0 is_stmt 1
 6399 2858 FFF7FEFF 		bl	e_i2cp_enable
 6400              	.LVL667:
 6401              		.loc 1 2027 0
 6402 285c 2978     		ldrb	r1, [r5]	@ zero_extendqisi2
 6403 285e 2078     		ldrb	r0, [r4]	@ zero_extendqisi2
 6404 2860 254D     		ldr	r5, .L856+104
 6405 2862 FFF7FEFF 		bl	e_i2cp_read
 6406              	.LVL668:
 6407 2866 2860     		str	r0, [r5]
 6408              		.loc 1 2028 0
 6409 2868 FFF7FEFF 		bl	e_i2cp_disable
 6410              	.LVL669:
 6411              		.loc 1 2029 0
 6412 286c 2349     		ldr	r1, .L856+108
 6413 286e 2A68     		ldr	r2, [r5]
 6414 2870 2048     		ldr	r0, .L856+100
 6415 2872 FFF7FEFF 		bl	sprintf
 6416              	.LVL670:
 6417              		.loc 1 2036 0
 6418 2876 1F48     		ldr	r0, .L856+100
 6419 2878 FFF7FEFF 		bl	strlen
 6420              	.LVL671:
 6421 287c 0146     		mov	r1, r0
 6422 287e 1D48     		ldr	r0, .L856+100
 6423 2880 FFF7FEFF 		bl	e_send_uart2_char
 6424              	.LVL672:
 6425              	.L460:
 6426              		.loc 1 2036 0 is_stmt 0 discriminator 2
 6427 2884 FFF7FEFF 		bl	e_uart2_sending
 6428              	.LVL673:
 6429 2888 0028     		cmp	r0, #0
 6430 288a FBD1     		bne	.L460
 6431 288c FDF7FEBB 		b	.L18
 6432              	.L857:
 6433              		.align	2
 6434              	.L856:
 6435 2890 00060000 		.word	.LC45
 6436 2894 44060000 		.word	.LC47
 6437 2898 70060000 		.word	.LC48
 6438 289c 90060000 		.word	.LC49
 6439 28a0 B8060000 		.word	.LC50
 6440 28a4 E0060000 		.word	.LC51
 6441 28a8 10070000 		.word	.LC52
ARM GAS  C:\Users\marwa\AppData\Local\Temp\ccNqFJyR.s 			page 114


 6442 28ac 28070000 		.word	.LC53
 6443 28b0 3C070000 		.word	.LC54
 6444 28b4 60070000 		.word	.LC55
 6445 28b8 B0070000 		.word	.LC56
 6446 28bc D8070000 		.word	.LC57
 6447 28c0 04080000 		.word	.LC58
 6448 28c4 20080000 		.word	.LC59
 6449 28c8 38080000 		.word	.LC60
 6450 28cc 54080000 		.word	.LC61
 6451 28d0 80080000 		.word	.LC62
 6452 28d4 AC080000 		.word	.LC63
 6453 28d8 C8080000 		.word	.LC64
 6454 28dc F4080000 		.word	.LC65
 6455 28e0 24090000 		.word	.LC66
 6456 28e4 4C090000 		.word	.LC67
 6457 28e8 6C090000 		.word	.LC68
 6458 28ec 94090000 		.word	.LC69
 6459 28f0 640B0000 		.word	.LC97
 6460 28f4 00000000 		.word	buffer
 6461 28f8 00000000 		.word	.LANCHOR26
 6462 28fc 5C0B0000 		.word	.LC96
 6463              	.L377:
 6464              		.loc 1 1671 0 is_stmt 1
 6465 2900 FFF7FEFF 		bl	strlen
 6466              	.LVL674:
 6467 2904 0146     		mov	r1, r0
 6468 2906 4048     		ldr	r0, .L858
 6469 2908 FFF7FEFF 		bl	e_send_uart2_char
 6470              	.LVL675:
 6471              	.L379:
 6472              		.loc 1 1671 0 is_stmt 0 discriminator 2
 6473 290c FFF7FEFF 		bl	e_uart2_sending
 6474              	.LVL676:
 6475 2910 0028     		cmp	r0, #0
 6476 2912 FBD1     		bne	.L379
 6477 2914 FDF7BABB 		b	.L18
 6478              	.L424:
 6479              		.loc 1 1917 0 is_stmt 1
 6480 2918 FFF7FEFF 		bl	e_close_sound
 6481              	.LVL677:
 6482              		.loc 1 1918 0
 6483 291c FFF7FEFF 		bl	stopCurrentMelody
 6484              	.LVL678:
 6485              		.loc 1 1919 0
 6486 2920 0023     		movs	r3, #0
 6487 2922 2370     		strb	r3, [r4]
 6488              		.loc 1 1920 0
 6489 2924 2BE5     		b	.L431
 6490              	.L405:
 6491              		.loc 1 1775 0
 6492 2926 FFF7FEFF 		bl	strlen
 6493              	.LVL679:
 6494 292a 0146     		mov	r1, r0
 6495 292c 3648     		ldr	r0, .L858
 6496 292e FFF7FEFF 		bl	e_send_uart2_char
 6497              	.LVL680:
 6498              	.L407:
ARM GAS  C:\Users\marwa\AppData\Local\Temp\ccNqFJyR.s 			page 115


 6499              		.loc 1 1775 0 is_stmt 0 discriminator 2
 6500 2932 FFF7FEFF 		bl	e_uart2_sending
 6501              	.LVL681:
 6502 2936 0028     		cmp	r0, #0
 6503 2938 FBD1     		bne	.L407
 6504 293a FDF7A7BB 		b	.L18
 6505              	.L451:
 6506              		.loc 1 2009 0 is_stmt 1
 6507 293e FFF7FEFF 		bl	e_send_uart2_char
 6508              	.LVL682:
 6509              	.L453:
 6510              		.loc 1 2009 0 is_stmt 0 discriminator 2
 6511 2942 FFF7FEFF 		bl	e_uart2_sending
 6512              	.LVL683:
 6513 2946 0028     		cmp	r0, #0
 6514 2948 FBD1     		bne	.L453
 6515 294a FDF79FBB 		b	.L18
 6516              	.LVL684:
 6517              	.L350:
 6518              		.loc 1 1630 0 is_stmt 1
 6519 294e 2721     		movs	r1, #39
 6520 2950 2E48     		ldr	r0, .L858+4
 6521 2952 FFF7FEFF 		bl	e_send_uart2_char
 6522              	.LVL685:
 6523              	.L353:
 6524              		.loc 1 1630 0 is_stmt 0 discriminator 2
 6525 2956 FFF7FEFF 		bl	e_uart2_sending
 6526              	.LVL686:
 6527 295a 0028     		cmp	r0, #0
 6528 295c FBD1     		bne	.L353
 6529 295e 23E6     		b	.L352
 6530              	.L317:
 6531              		.loc 1 1580 0 is_stmt 1
 6532 2960 2F21     		movs	r1, #47
 6533 2962 2B48     		ldr	r0, .L858+8
 6534 2964 FFF7FEFF 		bl	e_send_uart1_char
 6535              	.LVL687:
 6536              	.L320:
 6537              		.loc 1 1580 0 is_stmt 0 discriminator 2
 6538 2968 FFF7FEFF 		bl	e_uart1_sending
 6539              	.LVL688:
 6540 296c 0028     		cmp	r0, #0
 6541 296e FBD1     		bne	.L320
 6542 2970 FFF759B9 		b	.L319
 6543              	.L829:
 6544              		.loc 1 1622 0 is_stmt 1
 6545 2974 1921     		movs	r1, #25
 6546 2976 2748     		ldr	r0, .L858+12
 6547 2978 FFF7FEFF 		bl	e_send_uart2_char
 6548              	.LVL689:
 6549              	.L349:
 6550              		.loc 1 1622 0 is_stmt 0 discriminator 2
 6551 297c FFF7FEFF 		bl	e_uart2_sending
 6552              	.LVL690:
 6553 2980 0028     		cmp	r0, #0
 6554 2982 FBD1     		bne	.L349
 6555 2984 03E6     		b	.L348
ARM GAS  C:\Users\marwa\AppData\Local\Temp\ccNqFJyR.s 			page 116


 6556              	.LVL691:
 6557              	.L827:
 6558              		.loc 1 1685 0 is_stmt 1
 6559 2986 0A9B     		ldr	r3, [sp, #40]
 6560 2988 1A68     		ldr	r2, [r3]
 6561 298a 0B9B     		ldr	r3, [sp, #44]
 6562 298c 1B68     		ldr	r3, [r3]
 6563 298e 03FB02F3 		mul	r3, r3, r2
 6564 2992 089A     		ldr	r2, [sp, #32]
 6565 2994 5B00     		lsls	r3, r3, #1
 6566 2996 1360     		str	r3, [r2]
 6567 2998 FFF78DBA 		b	.L386
 6568              	.L391:
 6569              		.loc 1 1710 0
 6570 299c FFF7FEFF 		bl	e_send_uart2_char
 6571              	.LVL692:
 6572              	.L393:
 6573              		.loc 1 1710 0 is_stmt 0 discriminator 2
 6574 29a0 FFF7FEFF 		bl	e_uart2_sending
 6575              	.LVL693:
 6576 29a4 0028     		cmp	r0, #0
 6577 29a6 FBD1     		bne	.L393
 6578 29a8 FDF770BB 		b	.L18
 6579              	.LVL694:
 6580              	.L826:
 6581              		.loc 1 1610 0 is_stmt 1
 6582 29ac 1F21     		movs	r1, #31
 6583 29ae 1A48     		ldr	r0, .L858+16
 6584 29b0 FFF7FEFF 		bl	e_send_uart1_char
 6585              	.LVL695:
 6586              	.L342:
 6587              		.loc 1 1610 0 is_stmt 0 discriminator 2
 6588 29b4 FFF7FEFF 		bl	e_uart1_sending
 6589              	.LVL696:
 6590 29b8 0028     		cmp	r0, #0
 6591 29ba FBD1     		bne	.L342
 6592 29bc FFF7CDB9 		b	.L341
 6593              	.L825:
 6594              		.loc 1 1591 0 is_stmt 1
 6595 29c0 1821     		movs	r1, #24
 6596 29c2 1648     		ldr	r0, .L858+20
 6597 29c4 FFF7FEFF 		bl	e_send_uart1_char
 6598              	.LVL697:
 6599              	.L327:
 6600              		.loc 1 1591 0 is_stmt 0 discriminator 2
 6601 29c8 FFF7FEFF 		bl	e_uart1_sending
 6602              	.LVL698:
 6603 29cc 0028     		cmp	r0, #0
 6604 29ce FBD1     		bne	.L327
 6605 29d0 FFF756B9 		b	.L326
 6606              	.LVL699:
 6607              	.L828:
 6608              		.loc 1 1700 0 is_stmt 1
 6609 29d4 C3F5F071 		rsb	r1, r3, #480
 6610 29d8 01EBD171 		add	r1, r1, r1, lsr #31
 6611 29dc 4910     		asrs	r1, r1, #1
 6612 29de 2160     		str	r1, [r4]
ARM GAS  C:\Users\marwa\AppData\Local\Temp\ccNqFJyR.s 			page 117


 6613 29e0 FFF793BA 		b	.L390
 6614              	.L800:
 6615              	.LBE8:
 6616              		.loc 1 2080 0
 6617 29e4 FFF7FEFF 		bl	__stack_chk_fail
 6618              	.LVL700:
 6619              	.L280:
 6620              	.LBB9:
 6621              		.loc 1 1402 0
 6622 29e8 FFF7FEFF 		bl	getBatteryValueRaw
 6623              	.LVL701:
 6624 29ec 0446     		mov	r4, r0
 6625              	.LVL702:
 6626 29ee FFF7FEFF 		bl	getBatteryValuePercentage
 6627              	.LVL703:
 6628 29f2 2246     		mov	r2, r4
 6629 29f4 0346     		mov	r3, r0
 6630 29f6 0A49     		ldr	r1, .L858+24
 6631 29f8 0348     		ldr	r0, .L858
 6632 29fa FFF7FEFF 		bl	sprintf
 6633              	.LVL704:
 6634              		.loc 1 1403 0
 6635 29fe B9F1000F 		cmp	r9, #0
 6636 2a02 7DF443AB 		bne	.L18
 6637 2a06 F5E4     		b	.L475
 6638              	.L859:
 6639              		.align	2
 6640              	.L858:
 6641 2a08 00000000 		.word	buffer
 6642 2a0c 1C060000 		.word	.LC46
 6643 2a10 94010000 		.word	.LC19
 6644 2a14 E4050000 		.word	.LC44
 6645 2a18 14050000 		.word	.LC39
 6646 2a1c A0020000 		.word	.LC25
 6647 2a20 78000000 		.word	.LC3
 6648              	.LBE9:
 6649              		.cfi_endproc
 6650              	.LFE261:
 6651              		.size	run_asercom2, .-run_asercom2
 6652              		.global	end_asercom2
 6653              		.section	.bss.LED_action.13500,"aw",%nobits
 6654              		.align	2
 6655              		.set	.LANCHOR27,. + 0
 6656              		.type	LED_action.13500, %object
 6657              		.size	LED_action.13500, 4
 6658              	LED_action.13500:
 6659 0000 00000000 		.space	4
 6660              		.section	.bss.LED_nbr.13499,"aw",%nobits
 6661              		.align	2
 6662              		.set	.LANCHOR30,. + 0
 6663              		.type	LED_nbr.13499, %object
 6664              		.size	LED_nbr.13499, 4
 6665              	LED_nbr.13499:
 6666 0000 00000000 		.space	4
 6667              		.section	.bss.accelero.13524,"aw",%nobits
 6668              		.align	2
 6669              		.set	.LANCHOR14,. + 0
ARM GAS  C:\Users\marwa\AppData\Local\Temp\ccNqFJyR.s 			page 118


 6670              		.type	accelero.13524, %object
 6671              		.size	accelero.13524, 12
 6672              	accelero.13524:
 6673 0000 00000000 		.space	12
 6673      00000000 
 6673      00000000 
 6674              		.section	.bss.accx.13501,"aw",%nobits
 6675              		.align	2
 6676              		.set	.LANCHOR11,. + 0
 6677              		.type	accx.13501, %object
 6678              		.size	accx.13501, 4
 6679              	accx.13501:
 6680 0000 00000000 		.space	4
 6681              		.section	.bss.accy.13502,"aw",%nobits
 6682              		.align	2
 6683              		.set	.LANCHOR12,. + 0
 6684              		.type	accy.13502, %object
 6685              		.size	accy.13502, 4
 6686              	accy.13502:
 6687 0000 00000000 		.space	4
 6688              		.section	.bss.accz.13503,"aw",%nobits
 6689              		.align	2
 6690              		.set	.LANCHOR13,. + 0
 6691              		.type	accz.13503, %object
 6692              		.size	accz.13503, 4
 6693              	accz.13503:
 6694 0000 00000000 		.space	4
 6695              		.section	.bss.c1.13489,"aw",%nobits
 6696              		.set	.LANCHOR20,. + 0
 6697              		.type	c1.13489, %object
 6698              		.size	c1.13489, 1
 6699              	c1.13489:
 6700 0000 00       		.space	1
 6701              		.section	.bss.c2.13490,"aw",%nobits
 6702              		.set	.LANCHOR21,. + 0
 6703              		.type	c2.13490, %object
 6704              		.size	c2.13490, 1
 6705              	c2.13490:
 6706 0000 00       		.space	1
 6707              		.section	.bss.cam_heigth.13510,"aw",%nobits
