ARM GAS  C:\Users\marwa\AppData\Local\Temp\ccG7s7VO.s 			page 1


   1              		.cpu cortex-m4
   2              		.eabi_attribute 27, 1
   3              		.eabi_attribute 28, 1
   4              		.eabi_attribute 20, 1
   5              		.eabi_attribute 21, 1
   6              		.eabi_attribute 23, 3
   7              		.eabi_attribute 24, 1
   8              		.eabi_attribute 25, 1
   9              		.eabi_attribute 26, 1
  10              		.eabi_attribute 30, 2
  11              		.eabi_attribute 34, 1
  12              		.eabi_attribute 18, 4
  13              		.file	"ir_sensors.c"
  14              		.text
  15              	.Ltext0:
  16              		.cfi_sections	.debug_frame
  17              		.section	.text.turn_to_find_object,"ax",%progbits
  18              		.align	1
  19              		.p2align 4,,15
  20              		.global	turn_to_find_object
  21              		.syntax unified
  22              		.thumb
  23              		.thumb_func
  24              		.fpu fpv4-sp-d16
  25              		.type	turn_to_find_object, %function
  26              	turn_to_find_object:
  27              	.LFB261:
  28              		.file 1 ".//src/ir_sensors.c"
  29              		.loc 1 78 0
  30              		.cfi_startproc
  31              		@ args = 0, pretend = 0, frame = 8
  32              		@ frame_needed = 0, uses_anonymous_args = 0
  33              	.LVL0:
  34 0000 30B5     		push	{r4, r5, lr}
  35              		.cfi_def_cfa_offset 12
  36              		.cfi_offset 4, -12
  37              		.cfi_offset 5, -8
  38              		.cfi_offset 14, -4
  39              		.loc 1 79 0
  40 0002 0368     		ldr	r3, [r0]
  41              		.loc 1 78 0
  42 0004 124D     		ldr	r5, .L11
  43              		.loc 1 83 0
  44 0006 134C     		ldr	r4, .L11+4
  45              		.loc 1 78 0
  46 0008 2A68     		ldr	r2, [r5]
  47              		.loc 1 79 0
  48 000a 0133     		adds	r3, r3, #1
  49              		.loc 1 78 0
  50 000c 83B0     		sub	sp, sp, #12
  51              		.cfi_def_cfa_offset 24
  52              		.loc 1 79 0
  53 000e 0360     		str	r3, [r0]
  54              		.loc 1 78 0
  55 0010 0192     		str	r2, [sp, #4]
  56              		.loc 1 83 0
  57 0012 2368     		ldr	r3, [r4]
ARM GAS  C:\Users\marwa\AppData\Local\Temp\ccG7s7VO.s 			page 2


  58              		.loc 1 80 0
  59 0014 104A     		ldr	r2, .L11+8
  60 0016 0121     		movs	r1, #1
  61 0018 1170     		strb	r1, [r2]
  62              		.loc 1 83 0
  63 001a 2BB9     		cbnz	r3, .L2
  64              	.LVL1:
  65              	.L3:
  66              		.loc 1 84 0
  67 001c 0A20     		movs	r0, #10
  68 001e FFF7FEFF 		bl	chThdSleep
  69              	.LVL2:
  70              		.loc 1 83 0
  71 0022 2368     		ldr	r3, [r4]
  72 0024 002B     		cmp	r3, #0
  73 0026 F9D0     		beq	.L3
  74              	.L2:
  75              		.loc 1 87 0
  76 0028 4FF4AF70 		mov	r0, #350
  77 002c FFF7FEFF 		bl	right_motor_set_speed
  78              	.LVL3:
  79              		.loc 1 88 0
  80 0030 0A48     		ldr	r0, .L11+12
  81 0032 FFF7FEFF 		bl	left_motor_set_speed
  82              	.LVL4:
  83              		.loc 1 89 0
  84 0036 019A     		ldr	r2, [sp, #4]
  85 0038 2B68     		ldr	r3, [r5]
  86 003a 9A42     		cmp	r2, r3
  87 003c 05D1     		bne	.L10
  88 003e 6420     		movs	r0, #100
  89              		.loc 1 90 0
  90 0040 03B0     		add	sp, sp, #12
  91              		.cfi_remember_state
  92              		.cfi_def_cfa_offset 12
  93              		@ sp needed
  94 0042 BDE83040 		pop	{r4, r5, lr}
  95              		.cfi_restore 14
  96              		.cfi_restore 5
  97              		.cfi_restore 4
  98              		.cfi_def_cfa_offset 0
  99              		.loc 1 89 0
 100 0046 FFF7FEBF 		b	chThdSleep
 101              	.LVL5:
 102              	.L10:
 103              		.cfi_restore_state
 104 004a FFF7FEFF 		bl	__stack_chk_fail
 105              	.LVL6:
 106              	.L12:
 107 004e 00BF     		.align	2
 108              	.L11:
 109 0050 00000000 		.word	__stack_chk_guard
 110 0054 00000000 		.word	grid_ref
 111 0058 00000000 		.word	.LANCHOR0
 112 005c A2FEFFFF 		.word	-350
 113              		.cfi_endproc
 114              	.LFE261:
ARM GAS  C:\Users\marwa\AppData\Local\Temp\ccG7s7VO.s 			page 3


 115              		.size	turn_to_find_object, .-turn_to_find_object
 116              		.section	.text.turn_back_to_continue,"ax",%progbits
 117              		.align	1
 118              		.p2align 4,,15
 119              		.global	turn_back_to_continue
 120              		.syntax unified
 121              		.thumb
 122              		.thumb_func
 123              		.fpu fpv4-sp-d16
 124              		.type	turn_back_to_continue, %function
 125              	turn_back_to_continue:
 126              	.LFB262:
 127              		.loc 1 93 0
 128              		.cfi_startproc
 129              		@ args = 0, pretend = 0, frame = 8
 130              		@ frame_needed = 0, uses_anonymous_args = 0
 131              	.LVL7:
 132 0000 70B5     		push	{r4, r5, r6, lr}
 133              		.cfi_def_cfa_offset 16
 134              		.cfi_offset 4, -16
 135              		.cfi_offset 5, -12
 136              		.cfi_offset 6, -8
 137              		.cfi_offset 14, -4
 138 0002 164E     		ldr	r6, .L20
 139              		.loc 1 95 0
 140 0004 1649     		ldr	r1, .L20+4
 141              		.loc 1 93 0
 142 0006 3368     		ldr	r3, [r6]
 143              		.loc 1 96 0
 144 0008 164A     		ldr	r2, .L20+8
 145              	.LBB5:
 146              		.loc 1 100 0
 147 000a 174D     		ldr	r5, .L20+12
 148              	.LBE5:
 149              		.loc 1 93 0
 150 000c 82B0     		sub	sp, sp, #8
 151              		.cfi_def_cfa_offset 24
 152              		.loc 1 96 0
 153 000e 0C24     		movs	r4, #12
 154              		.loc 1 93 0
 155 0010 0193     		str	r3, [sp, #4]
 156              		.loc 1 94 0
 157 0012 0023     		movs	r3, #0
 158 0014 0360     		str	r3, [r0]
 159              		.loc 1 95 0
 160 0016 0B70     		strb	r3, [r1]
 161              		.loc 1 96 0
 162 0018 1370     		strb	r3, [r2]
 163              	.LVL8:
 164              	.L14:
 165              	.LBB6:
 166              		.loc 1 100 0 discriminator 3
 167 001a 2846     		mov	r0, r5
 168 001c FFF7FEFF 		bl	right_motor_set_speed
 169              	.LVL9:
 170              		.loc 1 101 0 discriminator 3
 171 0020 4FF4B970 		mov	r0, #370
ARM GAS  C:\Users\marwa\AppData\Local\Temp\ccG7s7VO.s 			page 4


 172 0024 FFF7FEFF 		bl	left_motor_set_speed
 173              	.LVL10:
 174              		.loc 1 102 0 discriminator 3
 175 0028 7820     		movs	r0, #120
 176 002a FFF7FEFF 		bl	chThdSleep
 177              	.LVL11:
 178              		.loc 1 97 0 discriminator 3
 179 002e 013C     		subs	r4, r4, #1
 180              	.LVL12:
 181 0030 F3D1     		bne	.L14
 182              	.LBE6:
 183              		.loc 1 104 0
 184 0032 2046     		mov	r0, r4
 185 0034 FFF7FEFF 		bl	right_motor_set_speed
 186              	.LVL13:
 187              		.loc 1 105 0
 188 0038 2046     		mov	r0, r4
 189 003a FFF7FEFF 		bl	left_motor_set_speed
 190              	.LVL14:
 191              		.loc 1 108 0
 192 003e 019A     		ldr	r2, [sp, #4]
 193 0040 3368     		ldr	r3, [r6]
 194              		.loc 1 107 0
 195 0042 0A49     		ldr	r1, .L20+16
 196              		.loc 1 108 0
 197 0044 9A42     		cmp	r2, r3
 198              		.loc 1 107 0
 199 0046 0C70     		strb	r4, [r1]
 200              		.loc 1 108 0
 201 0048 06D1     		bne	.L19
 202 004a 0948     		ldr	r0, .L20+20
 203 004c 2146     		mov	r1, r4
 204              		.loc 1 109 0
 205 004e 02B0     		add	sp, sp, #8
 206              		.cfi_remember_state
 207              		.cfi_def_cfa_offset 16
 208              		@ sp needed
 209 0050 BDE87040 		pop	{r4, r5, r6, lr}
 210              		.cfi_restore 14
 211              		.cfi_restore 6
 212              		.cfi_restore 5
 213              		.cfi_restore 4
 214              		.cfi_def_cfa_offset 0
 215              	.LVL15:
 216              		.loc 1 108 0
 217 0054 FFF7FEBF 		b	chThdResume
 218              	.LVL16:
 219              	.L19:
 220              		.cfi_restore_state
 221 0058 FFF7FEFF 		bl	__stack_chk_fail
 222              	.LVL17:
 223              	.L21:
 224              		.align	2
 225              	.L20:
 226 005c 00000000 		.word	__stack_chk_guard
 227 0060 00000000 		.word	.LANCHOR1
 228 0064 00000000 		.word	.LANCHOR2
ARM GAS  C:\Users\marwa\AppData\Local\Temp\ccG7s7VO.s 			page 5


 229 0068 8EFEFFFF 		.word	-370
 230 006c 00000000 		.word	.LANCHOR0
 231 0070 00000000 		.word	grid_ref
 232              		.cfi_endproc
 233              	.LFE262:
 234              		.size	turn_back_to_continue, .-turn_back_to_continue
 235              		.section	.text.handle_object_found,"ax",%progbits
 236              		.align	1
 237              		.p2align 4,,15
 238              		.global	handle_object_found
 239              		.syntax unified
 240              		.thumb
 241              		.thumb_func
 242              		.fpu fpv4-sp-d16
 243              		.type	handle_object_found, %function
 244              	handle_object_found:
 245              	.LFB263:
 246              		.loc 1 112 0
 247              		.cfi_startproc
 248              		@ args = 0, pretend = 0, frame = 8
 249              		@ frame_needed = 0, uses_anonymous_args = 0
 250              	.LVL18:
 251 0000 30B5     		push	{r4, r5, lr}
 252              		.cfi_def_cfa_offset 12
 253              		.cfi_offset 4, -12
 254              		.cfi_offset 5, -8
 255              		.cfi_offset 14, -4
 256 0002 0E4C     		ldr	r4, .L30
 257              		.loc 1 119 0
 258 0004 0E4B     		ldr	r3, .L30+4
 259              		.loc 1 112 0
 260 0006 2268     		ldr	r2, [r4]
 261              		.loc 1 118 0
 262 0008 0E4D     		ldr	r5, .L30+8
 263              		.loc 1 117 0
 264 000a 0021     		movs	r1, #0
 265              		.loc 1 112 0
 266 000c 83B0     		sub	sp, sp, #12
 267              		.cfi_def_cfa_offset 24
 268              		.loc 1 117 0
 269 000e 0160     		str	r1, [r0]
 270              		.loc 1 112 0
 271 0010 0192     		str	r2, [sp, #4]
 272              		.loc 1 119 0
 273 0012 1A68     		ldr	r2, [r3]
 274              		.loc 1 118 0
 275 0014 2970     		strb	r1, [r5]
 276              		.loc 1 119 0
 277 0016 12B1     		cbz	r2, .L23
 278              		.loc 1 120 0
 279 0018 1846     		mov	r0, r3
 280              	.LVL19:
 281 001a FFF7FEFF 		bl	chThdResume
 282              	.LVL20:
 283              	.L23:
 284              		.loc 1 123 0
 285 001e 019A     		ldr	r2, [sp, #4]
ARM GAS  C:\Users\marwa\AppData\Local\Temp\ccG7s7VO.s 			page 6


 286 0020 2368     		ldr	r3, [r4]
 287              		.loc 1 121 0
 288 0022 094D     		ldr	r5, .L30+12
 289              		.loc 1 122 0
 290 0024 0949     		ldr	r1, .L30+16
 291              		.loc 1 121 0
 292 0026 0124     		movs	r4, #1
 293              		.loc 1 122 0
 294 0028 0020     		movs	r0, #0
 295              		.loc 1 123 0
 296 002a 9A42     		cmp	r2, r3
 297              		.loc 1 121 0
 298 002c 2C70     		strb	r4, [r5]
 299              		.loc 1 122 0
 300 002e 0870     		strb	r0, [r1]
 301              		.loc 1 123 0
 302 0030 01D1     		bne	.L29
 303 0032 03B0     		add	sp, sp, #12
 304              		.cfi_remember_state
 305              		.cfi_def_cfa_offset 12
 306              		@ sp needed
 307 0034 30BD     		pop	{r4, r5, pc}
 308              	.L29:
 309              		.cfi_restore_state
 310 0036 FFF7FEFF 		bl	__stack_chk_fail
 311              	.LVL21:
 312              	.L31:
 313 003a 00BF     		.align	2
 314              	.L30:
 315 003c 00000000 		.word	__stack_chk_guard
 316 0040 00000000 		.word	grid_ref
 317 0044 00000000 		.word	.LANCHOR0
 318 0048 00000000 		.word	.LANCHOR2
 319 004c 00000000 		.word	.LANCHOR1
 320              		.cfi_endproc
 321              	.LFE263:
 322              		.size	handle_object_found, .-handle_object_found
 323              		.section	.text.IRPrintThread,"ax",%progbits
 324              		.align	1
 325              		.p2align 4,,15
 326              		.syntax unified
 327              		.thumb
 328              		.thumb_func
 329              		.fpu fpv4-sp-d16
 330              		.type	IRPrintThread, %function
 331              	IRPrintThread:
 332              	.LFB260:
 333              		.loc 1 39 0
 334              		.cfi_startproc
 335              		@ args = 0, pretend = 0, frame = 8
 336              		@ frame_needed = 0, uses_anonymous_args = 0
 337              	.LVL22:
 338 0000 2DE9F043 		push	{r4, r5, r6, r7, r8, r9, lr}
 339              		.cfi_def_cfa_offset 28
 340              		.cfi_offset 4, -28
 341              		.cfi_offset 5, -24
 342              		.cfi_offset 6, -20
ARM GAS  C:\Users\marwa\AppData\Local\Temp\ccG7s7VO.s 			page 7


 343              		.cfi_offset 7, -16
 344              		.cfi_offset 8, -12
 345              		.cfi_offset 9, -8
 346              		.cfi_offset 14, -4
 347              	.LBB7:
 348              	.LBB8:
 349              		.file 2 ".//ChibiOS//os/rt/include/chregistry.h"
 350              		.loc 2 135 0
 351 0004 254A     		ldr	r2, .L63
 352              	.LBE8:
 353              	.LBE7:
 354              		.loc 1 39 0
 355 0006 264B     		ldr	r3, .L63+4
 356              	.LBB11:
 357              	.LBB9:
 358              		.loc 2 135 0
 359 0008 9269     		ldr	r2, [r2, #24]
 360 000a 2649     		ldr	r1, .L63+8
 361              	.LBE9:
 362              	.LBE11:
 363              		.loc 1 39 0
 364 000c 1B68     		ldr	r3, [r3]
 365              	.LBB12:
 366              	.LBB10:
 367              		.loc 2 135 0
 368 000e 9161     		str	r1, [r2, #24]
 369              	.LBE10:
 370              	.LBE12:
 371              		.loc 1 39 0
 372 0010 83B0     		sub	sp, sp, #12
 373              		.cfi_def_cfa_offset 40
 374              		.loc 1 45 0
 375 0012 0DF10808 		add	r8, sp, #8
 376              		.loc 1 39 0
 377 0016 0193     		str	r3, [sp, #4]
 378              		.loc 1 43 0
 379 0018 FFF7FEFF 		bl	calibrate_ir
 380              	.LVL23:
 381              		.loc 1 45 0
 382 001c 0023     		movs	r3, #0
 383 001e 48F8083D 		str	r3, [r8, #-8]!
 384 0022 214E     		ldr	r6, .L63+12
 385 0024 214F     		ldr	r7, .L63+16
 386              	.LBB13:
 387              		.loc 1 58 0
 388 0026 4FF00109 		mov	r9, #1
 389 002a 02E0     		b	.L44
 390              	.LVL24:
 391              	.L33:
 392              	.LBE13:
 393              		.loc 1 72 0
 394 002c 6420     		movs	r0, #100
 395 002e FFF7FEFF 		bl	chThdSleep
 396              	.LVL25:
 397              	.L44:
 398              		.loc 1 48 0
 399 0032 3478     		ldrb	r4, [r6]	@ zero_extendqisi2
ARM GAS  C:\Users\marwa\AppData\Local\Temp\ccG7s7VO.s 			page 8


 400 0034 002C     		cmp	r4, #0
 401 0036 F9D1     		bne	.L33
 402              		.loc 1 48 0 is_stmt 0 discriminator 1
 403 0038 FFF7FEFF 		bl	get_mode_one_on
 404              	.LVL26:
 405 003c 0028     		cmp	r0, #0
 406 003e F5D0     		beq	.L33
 407              	.LBB14:
 408              		.loc 1 51 0 is_stmt 1
 409 0040 0425     		movs	r5, #4
 410 0042 0AE0     		b	.L34
 411              	.LVL27:
 412              	.L62:
 413              		.loc 1 54 0 discriminator 2
 414 0044 072D     		cmp	r5, #7
 415 0046 0BD0     		beq	.L35
 416              	.L36:
 417              		.loc 1 60 0
 418 0048 009B     		ldr	r3, [sp]
 419 004a 0B2B     		cmp	r3, #11
 420 004c 17DD     		ble	.L60
 421              	.L56:
 422              		.loc 1 64 0
 423 004e 4046     		mov	r0, r8
 424 0050 FFF7FEFF 		bl	turn_back_to_continue
 425              	.LVL28:
 426              	.L55:
 427              		.loc 1 66 0
 428 0054 072D     		cmp	r5, #7
 429 0056 17D0     		beq	.L61
 430              	.L57:
 431              		.loc 1 51 0
 432 0058 0135     		adds	r5, r5, #1
 433              	.LVL29:
 434              	.L34:
 435              		.loc 1 54 0
 436 005a 3B78     		ldrb	r3, [r7]	@ zero_extendqisi2
 437 005c 002B     		cmp	r3, #0
 438 005e F1D1     		bne	.L62
 439              	.L35:
 440              		.loc 1 55 0
 441 0060 2846     		mov	r0, r5
 442 0062 FFF7FEFF 		bl	get_calibrated_prox
 443              	.LVL30:
 444 0066 84B2     		uxth	r4, r0
 445              	.LVL31:
 446              		.loc 1 57 0
 447 0068 B4F57A7F 		cmp	r4, #1000
 448 006c 3B78     		ldrb	r3, [r7]	@ zero_extendqisi2
 449 006e 12D9     		bls	.L37
 450              		.loc 1 57 0 is_stmt 0 discriminator 1
 451 0070 002B     		cmp	r3, #0
 452 0072 E9D1     		bne	.L36
 453              		.loc 1 60 0 is_stmt 1
 454 0074 009B     		ldr	r3, [sp]
 455              		.loc 1 58 0
 456 0076 87F80090 		strb	r9, [r7]
ARM GAS  C:\Users\marwa\AppData\Local\Temp\ccG7s7VO.s 			page 9


 457              		.loc 1 60 0
 458 007a 0B2B     		cmp	r3, #11
 459 007c E7DC     		bgt	.L56
 460              	.LVL32:
 461              	.L60:
 462              		.loc 1 61 0
 463 007e 4046     		mov	r0, r8
 464 0080 FFF7FEFF 		bl	turn_to_find_object
 465              	.LVL33:
 466              		.loc 1 66 0
 467 0084 072D     		cmp	r5, #7
 468 0086 E7D1     		bne	.L57
 469              	.L61:
 470              		.loc 1 66 0 is_stmt 0 discriminator 3
 471 0088 B4F57A7F 		cmp	r4, #1000
 472 008c CED9     		bls	.L33
 473              		.loc 1 67 0 is_stmt 1
 474 008e 4046     		mov	r0, r8
 475 0090 FFF7FEFF 		bl	handle_object_found
 476              	.LVL34:
 477 0094 CAE7     		b	.L33
 478              	.LVL35:
 479              	.L37:
 480              		.loc 1 60 0
 481 0096 002B     		cmp	r3, #0
 482 0098 DCD0     		beq	.L55
 483 009a D5E7     		b	.L36
 484              	.L64:
 485              		.align	2
 486              	.L63:
 487 009c 00000000 		.word	ch
 488 00a0 00000000 		.word	__stack_chk_guard
 489 00a4 00000000 		.word	.LANCHOR3
 490 00a8 00000000 		.word	.LANCHOR2
 491 00ac 00000000 		.word	.LANCHOR1
 492              	.LBE14:
 493              		.cfi_endproc
 494              	.LFE260:
 495              		.size	IRPrintThread, .-IRPrintThread
 496              		.section	.text.send_ir_data_to_computer,"ax",%progbits
 497              		.align	1
 498              		.p2align 4,,15
 499              		.global	send_ir_data_to_computer
 500              		.syntax unified
 501              		.thumb
 502              		.thumb_func
 503              		.fpu fpv4-sp-d16
 504              		.type	send_ir_data_to_computer, %function
 505              	send_ir_data_to_computer:
 506              	.LFB264:
 507              		.loc 1 126 0
 508              		.cfi_startproc
 509              		@ args = 0, pretend = 0, frame = 8
 510              		@ frame_needed = 0, uses_anonymous_args = 0
 511 0000 30B5     		push	{r4, r5, lr}
 512              		.cfi_def_cfa_offset 12
 513              		.cfi_offset 4, -12
ARM GAS  C:\Users\marwa\AppData\Local\Temp\ccG7s7VO.s 			page 10


 514              		.cfi_offset 5, -8
 515              		.cfi_offset 14, -4
 516 0002 094D     		ldr	r5, .L71
 517 0004 83B0     		sub	sp, sp, #12
 518              		.cfi_def_cfa_offset 24
 519              		.loc 1 126 0
 520 0006 2B68     		ldr	r3, [r5]
 521 0008 0193     		str	r3, [sp, #4]
 522              	.LVL36:
 523 000a 0024     		movs	r4, #0
 524              	.LVL37:
 525              	.L66:
 526              	.LBB15:
 527              	.LBB16:
 528              		.loc 1 129 0 discriminator 3
 529 000c 2046     		mov	r0, r4
 530 000e 0134     		adds	r4, r4, #1
 531              	.LVL38:
 532 0010 FFF7FEFF 		bl	get_calibrated_prox
 533              	.LVL39:
 534              	.LBE16:
 535              		.loc 1 127 0 discriminator 3
 536 0014 082C     		cmp	r4, #8
 537 0016 F9D1     		bne	.L66
 538              	.LBE15:
 539              		.loc 1 141 0
 540 0018 019A     		ldr	r2, [sp, #4]
 541 001a 2B68     		ldr	r3, [r5]
 542 001c 9A42     		cmp	r2, r3
 543 001e 01D1     		bne	.L70
 544 0020 03B0     		add	sp, sp, #12
 545              		.cfi_remember_state
 546              		.cfi_def_cfa_offset 12
 547              		@ sp needed
 548 0022 30BD     		pop	{r4, r5, pc}
 549              	.L70:
 550              		.cfi_restore_state
 551 0024 FFF7FEFF 		bl	__stack_chk_fail
 552              	.LVL40:
 553              	.L72:
 554              		.align	2
 555              	.L71:
 556 0028 00000000 		.word	__stack_chk_guard
 557              		.cfi_endproc
 558              	.LFE264:
 559              		.size	send_ir_data_to_computer, .-send_ir_data_to_computer
 560              		.section	.text.ir_sensors_start,"ax",%progbits
 561              		.align	1
 562              		.p2align 4,,15
 563              		.global	ir_sensors_start
 564              		.syntax unified
 565              		.thumb
 566              		.thumb_func
 567              		.fpu fpv4-sp-d16
 568              		.type	ir_sensors_start, %function
 569              	ir_sensors_start:
 570              	.LFB265:
ARM GAS  C:\Users\marwa\AppData\Local\Temp\ccG7s7VO.s 			page 11


 571              		.loc 1 145 0
 572              		.cfi_startproc
 573              		@ args = 0, pretend = 0, frame = 8
 574              		@ frame_needed = 0, uses_anonymous_args = 0
 575 0000 10B5     		push	{r4, lr}
 576              		.cfi_def_cfa_offset 8
 577              		.cfi_offset 4, -8
 578              		.cfi_offset 14, -4
 579 0002 0A4C     		ldr	r4, .L77
 580              		.loc 1 146 0
 581 0004 0A4B     		ldr	r3, .L77+4
 582              		.loc 1 145 0
 583 0006 2268     		ldr	r2, [r4]
 584              		.loc 1 146 0
 585 0008 0A48     		ldr	r0, .L77+8
 586              		.loc 1 145 0
 587 000a 84B0     		sub	sp, sp, #16
 588              		.cfi_def_cfa_offset 24
 589              		.loc 1 146 0
 590 000c 4FF41E71 		mov	r1, #632
 591              		.loc 1 145 0
 592 0010 0392     		str	r2, [sp, #12]
 593              		.loc 1 146 0
 594 0012 0022     		movs	r2, #0
 595 0014 0092     		str	r2, [sp]
 596 0016 4022     		movs	r2, #64
 597 0018 FFF7FEFF 		bl	chThdCreateStatic
 598              	.LVL41:
 599              		.loc 1 148 0
 600 001c 039A     		ldr	r2, [sp, #12]
 601 001e 2368     		ldr	r3, [r4]
 602 0020 9A42     		cmp	r2, r3
 603 0022 01D1     		bne	.L76
 604 0024 04B0     		add	sp, sp, #16
 605              		.cfi_remember_state
 606              		.cfi_def_cfa_offset 8
 607              		@ sp needed
 608 0026 10BD     		pop	{r4, pc}
 609              	.L76:
 610              		.cfi_restore_state
 611 0028 FFF7FEFF 		bl	__stack_chk_fail
 612              	.LVL42:
 613              	.L78:
 614              		.align	2
 615              	.L77:
 616 002c 00000000 		.word	__stack_chk_guard
 617 0030 00000000 		.word	IRPrintThread
 618 0034 00000000 		.word	.LANCHOR4
 619              		.cfi_endproc
 620              	.LFE265:
 621              		.size	ir_sensors_start, .-ir_sensors_start
 622              		.section	.text.get_object_close,"ax",%progbits
 623              		.align	1
 624              		.p2align 4,,15
 625              		.global	get_object_close
 626              		.syntax unified
 627              		.thumb
ARM GAS  C:\Users\marwa\AppData\Local\Temp\ccG7s7VO.s 			page 12


 628              		.thumb_func
 629              		.fpu fpv4-sp-d16
 630              		.type	get_object_close, %function
 631              	get_object_close:
 632              	.LFB266:
 633              		.loc 1 152 0
 634              		.cfi_startproc
 635              		@ args = 0, pretend = 0, frame = 8
 636              		@ frame_needed = 0, uses_anonymous_args = 0
 637 0000 00B5     		push	{lr}
 638              		.cfi_def_cfa_offset 4
 639              		.cfi_offset 14, -4
 640 0002 074B     		ldr	r3, .L83
 641              		.loc 1 153 0
 642 0004 0749     		ldr	r1, .L83+4
 643              		.loc 1 152 0
 644 0006 1A68     		ldr	r2, [r3]
 645              		.loc 1 154 0
 646 0008 0878     		ldrb	r0, [r1]	@ zero_extendqisi2
 647              		.loc 1 152 0
 648 000a 83B0     		sub	sp, sp, #12
 649              		.cfi_def_cfa_offset 16
 650              		.loc 1 152 0
 651 000c 0192     		str	r2, [sp, #4]
 652              		.loc 1 154 0
 653 000e 019A     		ldr	r2, [sp, #4]
 654 0010 1B68     		ldr	r3, [r3]
 655 0012 9A42     		cmp	r2, r3
 656 0014 02D1     		bne	.L82
 657 0016 03B0     		add	sp, sp, #12
 658              		.cfi_remember_state
 659              		.cfi_def_cfa_offset 4
 660              		@ sp needed
 661 0018 5DF804FB 		ldr	pc, [sp], #4
 662              	.L82:
 663              		.cfi_restore_state
 664 001c FFF7FEFF 		bl	__stack_chk_fail
 665              	.LVL43:
 666              	.L84:
 667              		.align	2
 668              	.L83:
 669 0020 00000000 		.word	__stack_chk_guard
 670 0024 00000000 		.word	.LANCHOR1
 671              		.cfi_endproc
 672              	.LFE266:
 673              		.size	get_object_close, .-get_object_close
 674              		.section	.text.get_object_found,"ax",%progbits
 675              		.align	1
 676              		.p2align 4,,15
 677              		.global	get_object_found
 678              		.syntax unified
 679              		.thumb
 680              		.thumb_func
 681              		.fpu fpv4-sp-d16
 682              		.type	get_object_found, %function
 683              	get_object_found:
 684              	.LFB267:
ARM GAS  C:\Users\marwa\AppData\Local\Temp\ccG7s7VO.s 			page 13


 685              		.loc 1 156 0
 686              		.cfi_startproc
 687              		@ args = 0, pretend = 0, frame = 8
 688              		@ frame_needed = 0, uses_anonymous_args = 0
 689 0000 00B5     		push	{lr}
 690              		.cfi_def_cfa_offset 4
 691              		.cfi_offset 14, -4
 692 0002 074B     		ldr	r3, .L89
 693              		.loc 1 157 0
 694 0004 0749     		ldr	r1, .L89+4
 695              		.loc 1 156 0
 696 0006 1A68     		ldr	r2, [r3]
 697              		.loc 1 158 0
 698 0008 0878     		ldrb	r0, [r1]	@ zero_extendqisi2
 699              		.loc 1 156 0
 700 000a 83B0     		sub	sp, sp, #12
 701              		.cfi_def_cfa_offset 16
 702              		.loc 1 156 0
 703 000c 0192     		str	r2, [sp, #4]
 704              		.loc 1 158 0
 705 000e 019A     		ldr	r2, [sp, #4]
 706 0010 1B68     		ldr	r3, [r3]
 707 0012 9A42     		cmp	r2, r3
 708 0014 02D1     		bne	.L88
 709 0016 03B0     		add	sp, sp, #12
 710              		.cfi_remember_state
 711              		.cfi_def_cfa_offset 4
 712              		@ sp needed
 713 0018 5DF804FB 		ldr	pc, [sp], #4
 714              	.L88:
 715              		.cfi_restore_state
 716 001c FFF7FEFF 		bl	__stack_chk_fail
 717              	.LVL44:
 718              	.L90:
 719              		.align	2
 720              	.L89:
 721 0020 00000000 		.word	__stack_chk_guard
 722 0024 00000000 		.word	.LANCHOR2
 723              		.cfi_endproc
 724              	.LFE267:
 725              		.size	get_object_found, .-get_object_found
 726              		.section	.text.set_object_close,"ax",%progbits
 727              		.align	1
 728              		.p2align 4,,15
 729              		.global	set_object_close
 730              		.syntax unified
 731              		.thumb
 732              		.thumb_func
 733              		.fpu fpv4-sp-d16
 734              		.type	set_object_close, %function
 735              	set_object_close:
 736              	.LFB268:
 737              		.loc 1 161 0
 738              		.cfi_startproc
 739              		@ args = 0, pretend = 0, frame = 8
 740              		@ frame_needed = 0, uses_anonymous_args = 0
 741              	.LVL45:
ARM GAS  C:\Users\marwa\AppData\Local\Temp\ccG7s7VO.s 			page 14


 742 0000 00B5     		push	{lr}
 743              		.cfi_def_cfa_offset 4
 744              		.cfi_offset 14, -4
 745 0002 074B     		ldr	r3, .L95
 746              		.loc 1 162 0
 747 0004 0749     		ldr	r1, .L95+4
 748              		.loc 1 161 0
 749 0006 1A68     		ldr	r2, [r3]
 750              		.loc 1 162 0
 751 0008 0870     		strb	r0, [r1]
 752              		.loc 1 161 0
 753 000a 83B0     		sub	sp, sp, #12
 754              		.cfi_def_cfa_offset 16
 755              		.loc 1 161 0
 756 000c 0192     		str	r2, [sp, #4]
 757              		.loc 1 164 0
 758 000e 019A     		ldr	r2, [sp, #4]
 759 0010 1B68     		ldr	r3, [r3]
 760 0012 9A42     		cmp	r2, r3
 761 0014 02D1     		bne	.L94
 762 0016 03B0     		add	sp, sp, #12
 763              		.cfi_remember_state
 764              		.cfi_def_cfa_offset 4
 765              		@ sp needed
 766 0018 5DF804FB 		ldr	pc, [sp], #4
 767              	.L94:
 768              		.cfi_restore_state
 769 001c FFF7FEFF 		bl	__stack_chk_fail
 770              	.LVL46:
 771              	.L96:
 772              		.align	2
 773              	.L95:
 774 0020 00000000 		.word	__stack_chk_guard
 775 0024 00000000 		.word	.LANCHOR1
 776              		.cfi_endproc
 777              	.LFE268:
 778              		.size	set_object_close, .-set_object_close
 779              		.section	.text.set_object_found,"ax",%progbits
 780              		.align	1
 781              		.p2align 4,,15
 782              		.global	set_object_found
 783              		.syntax unified
 784              		.thumb
 785              		.thumb_func
 786              		.fpu fpv4-sp-d16
 787              		.type	set_object_found, %function
 788              	set_object_found:
 789              	.LFB269:
 790              		.loc 1 166 0
 791              		.cfi_startproc
 792              		@ args = 0, pretend = 0, frame = 8
 793              		@ frame_needed = 0, uses_anonymous_args = 0
 794              	.LVL47:
 795 0000 00B5     		push	{lr}
 796              		.cfi_def_cfa_offset 4
 797              		.cfi_offset 14, -4
 798 0002 074B     		ldr	r3, .L101
ARM GAS  C:\Users\marwa\AppData\Local\Temp\ccG7s7VO.s 			page 15


 799              		.loc 1 167 0
 800 0004 0749     		ldr	r1, .L101+4
 801              		.loc 1 166 0
 802 0006 1A68     		ldr	r2, [r3]
 803              		.loc 1 167 0
 804 0008 0870     		strb	r0, [r1]
 805              		.loc 1 166 0
 806 000a 83B0     		sub	sp, sp, #12
 807              		.cfi_def_cfa_offset 16
 808              		.loc 1 166 0
 809 000c 0192     		str	r2, [sp, #4]
 810              		.loc 1 169 0
 811 000e 019A     		ldr	r2, [sp, #4]
 812 0010 1B68     		ldr	r3, [r3]
 813 0012 9A42     		cmp	r2, r3
 814 0014 02D1     		bne	.L100
 815 0016 03B0     		add	sp, sp, #12
 816              		.cfi_remember_state
 817              		.cfi_def_cfa_offset 4
 818              		@ sp needed
 819 0018 5DF804FB 		ldr	pc, [sp], #4
 820              	.L100:
 821              		.cfi_restore_state
 822 001c FFF7FEFF 		bl	__stack_chk_fail
 823              	.LVL48:
 824              	.L102:
 825              		.align	2
 826              	.L101:
 827 0020 00000000 		.word	__stack_chk_guard
 828 0024 00000000 		.word	.LANCHOR2
 829              		.cfi_endproc
 830              	.LFE269:
 831              		.size	set_object_found, .-set_object_found
 832              		.section	.text.get_pause_request,"ax",%progbits
 833              		.align	1
 834              		.p2align 4,,15
 835              		.global	get_pause_request
 836              		.syntax unified
 837              		.thumb
 838              		.thumb_func
 839              		.fpu fpv4-sp-d16
 840              		.type	get_pause_request, %function
 841              	get_pause_request:
 842              	.LFB270:
 843              		.loc 1 172 0
 844              		.cfi_startproc
 845              		@ args = 0, pretend = 0, frame = 8
 846              		@ frame_needed = 0, uses_anonymous_args = 0
 847 0000 00B5     		push	{lr}
 848              		.cfi_def_cfa_offset 4
 849              		.cfi_offset 14, -4
 850 0002 074B     		ldr	r3, .L107
 851              		.loc 1 173 0
 852 0004 0749     		ldr	r1, .L107+4
 853              		.loc 1 172 0
 854 0006 1A68     		ldr	r2, [r3]
 855              		.loc 1 174 0
ARM GAS  C:\Users\marwa\AppData\Local\Temp\ccG7s7VO.s 			page 16


 856 0008 0878     		ldrb	r0, [r1]	@ zero_extendqisi2
 857              		.loc 1 172 0
 858 000a 83B0     		sub	sp, sp, #12
 859              		.cfi_def_cfa_offset 16
 860              		.loc 1 172 0
 861 000c 0192     		str	r2, [sp, #4]
 862              		.loc 1 174 0
 863 000e 019A     		ldr	r2, [sp, #4]
 864 0010 1B68     		ldr	r3, [r3]
 865 0012 9A42     		cmp	r2, r3
 866 0014 02D1     		bne	.L106
 867 0016 03B0     		add	sp, sp, #12
 868              		.cfi_remember_state
 869              		.cfi_def_cfa_offset 4
 870              		@ sp needed
 871 0018 5DF804FB 		ldr	pc, [sp], #4
 872              	.L106:
 873              		.cfi_restore_state
 874 001c FFF7FEFF 		bl	__stack_chk_fail
 875              	.LVL49:
 876              	.L108:
 877              		.align	2
 878              	.L107:
 879 0020 00000000 		.word	__stack_chk_guard
 880 0024 00000000 		.word	.LANCHOR0
 881              		.cfi_endproc
 882              	.LFE270:
 883              		.size	get_pause_request, .-get_pause_request
 884              		.section	.text.set_pause_request,"ax",%progbits
 885              		.align	1
 886              		.p2align 4,,15
 887              		.global	set_pause_request
 888              		.syntax unified
 889              		.thumb
 890              		.thumb_func
 891              		.fpu fpv4-sp-d16
 892              		.type	set_pause_request, %function
 893              	set_pause_request:
 894              	.LFB271:
 895              		.loc 1 177 0
 896              		.cfi_startproc
 897              		@ args = 0, pretend = 0, frame = 8
 898              		@ frame_needed = 0, uses_anonymous_args = 0
 899              	.LVL50:
 900 0000 00B5     		push	{lr}
 901              		.cfi_def_cfa_offset 4
 902              		.cfi_offset 14, -4
 903 0002 074B     		ldr	r3, .L113
 904              		.loc 1 178 0
 905 0004 0749     		ldr	r1, .L113+4
 906              		.loc 1 177 0
 907 0006 1A68     		ldr	r2, [r3]
 908              		.loc 1 178 0
 909 0008 0870     		strb	r0, [r1]
 910              		.loc 1 177 0
 911 000a 83B0     		sub	sp, sp, #12
 912              		.cfi_def_cfa_offset 16
ARM GAS  C:\Users\marwa\AppData\Local\Temp\ccG7s7VO.s 			page 17


 913              		.loc 1 177 0
 914 000c 0192     		str	r2, [sp, #4]
 915              		.loc 1 180 0
 916 000e 019A     		ldr	r2, [sp, #4]
 917 0010 1B68     		ldr	r3, [r3]
 918 0012 9A42     		cmp	r2, r3
 919 0014 02D1     		bne	.L112
 920 0016 03B0     		add	sp, sp, #12
 921              		.cfi_remember_state
 922              		.cfi_def_cfa_offset 4
 923              		@ sp needed
 924 0018 5DF804FB 		ldr	pc, [sp], #4
 925              	.L112:
 926              		.cfi_restore_state
 927 001c FFF7FEFF 		bl	__stack_chk_fail
 928              	.LVL51:
 929              	.L114:
 930              		.align	2
 931              	.L113:
 932 0020 00000000 		.word	__stack_chk_guard
 933 0024 00000000 		.word	.LANCHOR0
 934              		.cfi_endproc
 935              	.LFE271:
 936              		.size	set_pause_request, .-set_pause_request
 937              		.section	.bss.object_close,"aw",%nobits
 938              		.set	.LANCHOR1,. + 0
 939              		.type	object_close, %object
 940              		.size	object_close, 1
 941              	object_close:
 942 0000 00       		.space	1
 943              		.section	.bss.object_found,"aw",%nobits
 944              		.set	.LANCHOR2,. + 0
 945              		.type	object_found, %object
 946              		.size	object_found, 1
 947              	object_found:
 948 0000 00       		.space	1
 949              		.section	.bss.pause_request,"aw",%nobits
 950              		.set	.LANCHOR0,. + 0
 951              		.type	pause_request, %object
 952              		.size	pause_request, 1
 953              	pause_request:
 954 0000 00       		.space	1
 955              		.section	.bss.waIRPrintThread,"aw",%nobits
 956              		.align	3
 957              		.set	.LANCHOR4,. + 0
 958              		.type	waIRPrintThread, %object
 959              		.size	waIRPrintThread, 632
 960              	waIRPrintThread:
 961 0000 00000000 		.space	632
 961      00000000 
 961      00000000 
 961      00000000 
 961      00000000 
 962              		.section	.rodata.__FUNCTION__.12647,"a",%progbits
 963              		.align	2
 964              		.set	.LANCHOR3,. + 0
 965              		.type	__FUNCTION__.12647, %object
ARM GAS  C:\Users\marwa\AppData\Local\Temp\ccG7s7VO.s 			page 18


 966              		.size	__FUNCTION__.12647, 14
 967              	__FUNCTION__.12647:
 968 0000 49525072 		.ascii	"IRPrintThread\000"
 968      696E7454 
 968      68726561 
 968      6400
 969              		.text
 970              	.Letext0:
 971              		.file 3 "c:\\users\\marwa\\onedrive\\documents\\ide_robots\\epuck2_utils\\arm_gcc_toolchain\\lib\\
 972              		.file 4 "c:\\users\\marwa\\onedrive\\documents\\ide_robots\\epuck2_utils\\arm_gcc_toolchain\\arm-n
 973              		.file 5 "c:\\users\\marwa\\onedrive\\documents\\ide_robots\\epuck2_utils\\arm_gcc_toolchain\\arm-n
 974              		.file 6 ".//ChibiOS//os/rt/ports/ARMCMx/compilers/GCC/chtypes.h"
 975              		.file 7 ".//ChibiOS//os/rt/include/chsystypes.h"
 976              		.file 8 ".//ChibiOS//os/rt/include/chschd.h"
 977              		.file 9 ".//ChibiOS//os/ext/CMSIS/include/core_cm4.h"
 978              		.file 10 ".//ChibiOS//os/ext/CMSIS/ST/system_stm32f4xx.h"
 979              		.file 11 ".//ChibiOS//os/ext/CMSIS/ST/stm32f407xx.h"
 980              		.file 12 ".//ChibiOS//os/rt/ports/ARMCMx/chcore.h"
 981              		.file 13 ".//ChibiOS//os/rt/ports/ARMCMx/chcore_v7m.h"
 982              		.file 14 ".//ChibiOS//os/rt/include/chdebug.h"
 983              		.file 15 ".//ChibiOS//os/rt/include/chtm.h"
 984              		.file 16 ".//ChibiOS//os/rt/include/chstats.h"
 985              		.file 17 ".//ChibiOS//os/rt/include/chsem.h"
 986              		.file 18 ".//ChibiOS//os/rt/include/chmtx.h"
 987              		.file 19 ".//ChibiOS//os/rt/include/chevents.h"
 988              		.file 20 ".//ChibiOS//os/rt/include/chqueues.h"
 989              		.file 21 ".//ChibiOS//os/hal/ports/STM32/STM32F4xx/stm32_dma.h"
 990              		.file 22 ".//ChibiOS//os/hal/include/hal_ioblock.h"
 991              		.file 23 ".//ChibiOS//os/hal/ports/STM32/LLD/GPIOv2/pal_lld.h"
 992              		.file 24 ".//ChibiOS//os/hal/include/adc.h"
 993              		.file 25 ".//ChibiOS//os/hal/ports/STM32/STM32F4xx/adc_lld.h"
 994              		.file 26 ".//ChibiOS//os/hal/include/can.h"
 995              		.file 27 ".//ChibiOS//os/hal/ports/STM32/LLD/can_lld.h"
 996              		.file 28 ".//ChibiOS//os/hal/include/dac.h"
 997              		.file 29 ".//ChibiOS//os/hal/ports/STM32/LLD/DACv1/dac_lld.h"
 998              		.file 30 ".//ChibiOS//os/hal/include/ext.h"
 999              		.file 31 ".//ChibiOS//os/hal/ports/STM32/LLD/ext_lld.h"
 1000              		.file 32 ".//ChibiOS//os/hal/include/gpt.h"
 1001              		.file 33 ".//ChibiOS//os/hal/ports/STM32/LLD/TIMv1/gpt_lld.h"
 1002              		.file 34 ".//ChibiOS//os/hal/ports/STM32/LLD/TIMv1/stm32_tim.h"
 1003              		.file 35 ".//ChibiOS//os/hal/include/i2c.h"
 1004              		.file 36 ".//ChibiOS//os/hal/ports/STM32/LLD/I2Cv1/i2c_lld.h"
 1005              		.file 37 ".//ChibiOS//os/hal/include/i2s.h"
 1006              		.file 38 ".//ChibiOS//os/hal/ports/STM32/LLD/SPIv1/i2s_lld.h"
 1007              		.file 39 ".//ChibiOS//os/hal/include/pwm.h"
 1008              		.file 40 ".//ChibiOS//os/hal/ports/STM32/LLD/TIMv1/pwm_lld.h"
 1009              		.file 41 ".//ChibiOS//os/hal/include/serial.h"
 1010              		.file 42 ".//ChibiOS//os/hal/ports/STM32/LLD/USARTv1/serial_lld.h"
 1011              		.file 43 ".//ChibiOS//os/hal/include/sdc.h"
 1012              		.file 44 ".//ChibiOS//os/hal/ports/STM32/LLD/sdc_lld.h"
 1013              		.file 45 ".//ChibiOS//os/hal/include/spi.h"
 1014              		.file 46 ".//ChibiOS//os/hal/ports/STM32/LLD/SPIv1/spi_lld.h"
 1015              		.file 47 ".//ChibiOS//os/hal/include/usb.h"
 1016              		.file 48 ".//ChibiOS//os/hal/ports/STM32/LLD/OTGv1/usb_lld.h"
 1017              		.file 49 ".//ChibiOS//os/hal/ports/STM32/LLD/OTGv1/stm32_otg.h"
 1018              		.file 50 ".//ChibiOS//os/hal/include/serial_usb.h"
 1019              		.file 51 "c:\\users\\marwa\\onedrive\\documents\\ide_robots\\epuck2_utils\\arm_gcc_toolchain\\arm-
ARM GAS  C:\Users\marwa\AppData\Local\Temp\ccG7s7VO.s 			page 19


 1020              		.file 52 "c:\\users\\marwa\\onedrive\\documents\\ide_robots\\epuck2_utils\\arm_gcc_toolchain\\arm-
 1021              		.file 53 "c:\\users\\marwa\\onedrive\\documents\\ide_robots\\epuck2_utils\\arm_gcc_toolchain\\arm-
 1022              		.file 54 "c:\\users\\marwa\\onedrive\\documents\\ide_robots\\epuck2_utils\\arm_gcc_toolchain\\arm-
 1023              		.file 55 ".//src/usbcfg.h"
 1024              		.file 56 ".//src/motors.h"
 1025              		.file 57 ".//ChibiOS_ext/os/hal/include/../ports/STM32/STM32F4xx/dcmi_lld.h"
 1026              		.file 58 "c:\\users\\marwa\\onedrive\\documents\\ide_robots\\epuck2_utils\\arm_gcc_toolchain\\arm-
 1027              		.file 59 ".//src/msgbus/messagebus.h"
 1028              		.file 60 "c:\\users\\marwa\\onedrive\\documents\\ide_robots\\epuck2_utils\\arm_gcc_toolchain\\arm-
 1029              		.file 61 ".//src/parameter/parameter.h"
 1030              		.file 62 ".//src/main.h"
 1031              		.file 63 ".//src/grid.h"
 1032              		.file 64 ".//ChibiOS//os/rt/include/chthreads.h"
 1033              		.file 65 ".//src/sensors/proximity.h"
 1034              		.file 66 ".//src/pi_regulator.h"