ARM GAS  C:\Users\marwa\AppData\Local\Temp\ccyH9oMm.s 			page 1


   1              		.cpu cortex-m4
   2              		.eabi_attribute 27, 1
   3              		.eabi_attribute 28, 1
   4              		.eabi_attribute 20, 1
   5              		.eabi_attribute 21, 1
   6              		.eabi_attribute 23, 3
   7              		.eabi_attribute 24, 1
   8              		.eabi_attribute 25, 1
   9              		.eabi_attribute 26, 1
  10              		.eabi_attribute 30, 2
  11              		.eabi_attribute 34, 1
  12              		.eabi_attribute 18, 4
  13              		.file	"main.c"
  14              		.text
  15              	.Ltext0:
  16              		.cfi_sections	.debug_frame
  17              		.section	.text.selector_thd,"ax",%progbits
  18              		.align	1
  19              		.p2align 4,,15
  20              		.syntax unified
  21              		.thumb
  22              		.thumb_func
  23              		.fpu fpv4-sp-d16
  24              		.type	selector_thd, %function
  25              	selector_thd:
  26              	.LFB264:
  27              		.file 1 ".//src/main.c"
  28              		.loc 1 93 0
  29              		.cfi_startproc
  30              		@ args = 0, pretend = 0, frame = 8
  31              		@ frame_needed = 0, uses_anonymous_args = 0
  32              	.LVL0:
  33 0000 2DE9F04F 		push	{r4, r5, r6, r7, r8, r9, r10, fp, lr}
  34              		.cfi_def_cfa_offset 36
  35              		.cfi_offset 4, -36
  36              		.cfi_offset 5, -32
  37              		.cfi_offset 6, -28
  38              		.cfi_offset 7, -24
  39              		.cfi_offset 8, -20
  40              		.cfi_offset 9, -16
  41              		.cfi_offset 10, -12
  42              		.cfi_offset 11, -8
  43              		.cfi_offset 14, -4
  44              	.LBB50:
  45              	.LBB51:
  46              		.file 2 ".//ChibiOS//os/rt/include/chregistry.h"
  47              		.loc 2 135 0
  48 0004 4B4C     		ldr	r4, .L29
  49              	.LBE51:
  50              	.LBE50:
  51              		.loc 1 93 0
  52 0006 DFF84CA1 		ldr	r10, .L29+32
  53              	.LBB53:
  54              	.LBB52:
  55              		.loc 2 135 0
  56 000a A369     		ldr	r3, [r4, #24]
  57 000c 4A4A     		ldr	r2, .L29+4
ARM GAS  C:\Users\marwa\AppData\Local\Temp\ccyH9oMm.s 			page 2


  58 000e 9A61     		str	r2, [r3, #24]
  59              	.LBE52:
  60              	.LBE53:
  61              		.loc 1 93 0
  62 0010 87B0     		sub	sp, sp, #28
  63              		.cfi_def_cfa_offset 64
  64              		.loc 1 93 0
  65 0012 DAF80030 		ldr	r3, [r10]
  66              		.loc 1 99 0
  67 0016 4949     		ldr	r1, .L29+8
  68 0018 4948     		ldr	r0, .L29+12
  69              	.LVL1:
  70              		.loc 1 93 0
  71 001a 0593     		str	r3, [sp, #20]
  72 001c 494F     		ldr	r7, .L29+16
  73              	.LBB54:
  74              	.LBB55:
  75              	.LBB56:
  76              	.LBB57:
  77              		.file 3 ".//ChibiOS//os/rt/include/chsys.h"
  78              		.loc 3 367 0
  79 001e DFF838B1 		ldr	fp, .L29+36
  80              	.LBE57:
  81              	.LBE56:
  82              	.LBE55:
  83              	.LBE54:
  84              		.loc 1 154 0
  85 0022 DFF83891 		ldr	r9, .L29+40
  86              		.loc 1 99 0
  87 0026 FFF7FEFF 		bl	messagebus_find_topic_blocking
  88              	.LVL2:
  89              		.loc 1 104 0
  90 002a 4749     		ldr	r1, .L29+20
  91 002c 4448     		ldr	r0, .L29+12
  92 002e FFF7FEFF 		bl	messagebus_find_topic_blocking
  93              	.LVL3:
  94              		.loc 1 118 0
  95 0032 0023     		movs	r3, #0
  96 0034 8DF81330 		strb	r3, [sp, #19]
  97              	.LVL4:
  98              		.loc 1 143 0
  99 0038 FFF7FEFF 		bl	calibrate_acc
 100              	.LVL5:
 101              		.loc 1 144 0
 102 003c FFF7FEFF 		bl	calibrate_gyro
 103              	.LVL6:
 104              		.loc 1 145 0
 105 0040 FFF7FEFF 		bl	calibrate_ir
 106              	.LVL7:
 107 0044 3B78     		ldrb	r3, [r7]	@ zero_extendqisi2
 108              	.L2:
 109              		.loc 1 147 0
 110 0046 3BBB     		cbnz	r3, .L1
 111              	.LVL8:
 112              	.LBB71:
 113              	.LBB70:
 114              	.LBB62:
ARM GAS  C:\Users\marwa\AppData\Local\Temp\ccyH9oMm.s 			page 3


 115              	.LBB63:
 116              	.LBB64:
 117              	.LBB65:
 118              	.LBB66:
 119              		.file 4 ".//ChibiOS//os/ext/CMSIS/include/core_cmFunc.h"
 120              		.loc 4 546 0
 121 0048 2023     		movs	r3, #32
 122              		.syntax unified
 123              	@ 546 ".//ChibiOS//os/ext/CMSIS/include/core_cmFunc.h" 1
 124 004a 83F31188 		MSR basepri, r3
 125              	@ 0 "" 2
 126              	.LVL9:
 127              		.thumb
 128              		.syntax unified
 129              	.LBE66:
 130              	.LBE65:
 131              	.LBE64:
 132              		.loc 3 349 0
 133 004e FFF7FEFF 		bl	_stats_start_measure_crit_thd
 134              	.LVL10:
 135              		.loc 3 350 0
 136 0052 FFF7FEFF 		bl	_dbg_check_lock
 137              	.LVL11:
 138              	.LBE63:
 139              	.LBE62:
 140              	.LBB67:
 141              	.LBB68:
 142              		.file 5 ".//ChibiOS//os/rt/include/chvt.h"
 143              		.loc 5 231 0
 144 0056 A36A     		ldr	r3, [r4, #40]
 145              	.LBE68:
 146              	.LBE67:
 147              	.LBB69:
 148              	.LBB61:
 149              		.loc 3 360 0
 150 0058 FFF7FEFF 		bl	_dbg_check_unlock
 151              	.LVL12:
 152              		.loc 3 361 0
 153 005c FFF7FEFF 		bl	_stats_stop_measure_crit_thd
 154              	.LVL13:
 155              		.loc 3 367 0
 156 0060 2368     		ldr	r3, [r4]
 157 0062 A342     		cmp	r3, r4
 158 0064 07D0     		beq	.L3
 159 0066 A269     		ldr	r2, [r4, #24]
 160 0068 9B68     		ldr	r3, [r3, #8]
 161 006a 9268     		ldr	r2, [r2, #8]
 162 006c 9A42     		cmp	r2, r3
 163 006e 02D2     		bcs	.L3
 164 0070 5846     		mov	r0, fp
 165 0072 FFF7FEFF 		bl	chSysHalt
 166              	.LVL14:
 167              	.L3:
 168              	.LBB58:
 169              	.LBB59:
 170              	.LBB60:
 171              		.loc 4 546 0
ARM GAS  C:\Users\marwa\AppData\Local\Temp\ccyH9oMm.s 			page 4


 172 0076 0023     		movs	r3, #0
 173              		.syntax unified
 174              	@ 546 ".//ChibiOS//os/ext/CMSIS/include/core_cmFunc.h" 1
 175 0078 83F31188 		MSR basepri, r3
 176              	@ 0 "" 2
 177              	.LVL15:
 178              		.thumb
 179              		.syntax unified
 180              	.LBE60:
 181              	.LBE59:
 182              	.LBE58:
 183              	.LBE61:
 184              	.LBE69:
 185              	.LBE70:
 186              	.LBE71:
 187              		.loc 1 151 0
 188 007c FFF7FEFF 		bl	get_selector
 189              	.LVL16:
 190 0080 0F28     		cmp	r0, #15
 191 0082 39D1     		bne	.L23
 192              		.loc 1 154 0
 193 0084 99F80050 		ldrb	r5, [r9]	@ zero_extendqisi2
 194 0088 75B1     		cbz	r5, .L7
 195 008a 012D     		cmp	r5, #1
 196 008c 34D1     		bne	.L23
 197              		.loc 1 188 0
 198 008e 2F4B     		ldr	r3, .L29+24
 199 0090 1B78     		ldrb	r3, [r3]	@ zero_extendqisi2
 200 0092 9BB3     		cbz	r3, .L25
 201              	.L15:
 202              		.loc 1 190 0
 203 0094 0123     		movs	r3, #1
 204 0096 3B70     		strb	r3, [r7]
 205              	.L1:
 206              		.loc 1 196 0
 207 0098 059A     		ldr	r2, [sp, #20]
 208 009a DAF80030 		ldr	r3, [r10]
 209 009e 9A42     		cmp	r2, r3
 210 00a0 45D1     		bne	.L26
 211 00a2 07B0     		add	sp, sp, #28
 212              		.cfi_remember_state
 213              		.cfi_def_cfa_offset 36
 214              		@ sp needed
 215 00a4 BDE8F08F 		pop	{r4, r5, r6, r7, r8, r9, r10, fp, pc}
 216              	.L7:
 217              		.cfi_restore_state
 218              		.loc 1 158 0
 219 00a8 8023     		movs	r3, #128
 220 00aa 4FF4F072 		mov	r2, #480
 221 00ae CDE90133 		strd	r3, r3, [sp, #4]
 222 00b2 0092     		str	r2, [sp]
 223 00b4 4FF42073 		mov	r3, #640
 224 00b8 2A46     		mov	r2, r5
 225 00ba 2946     		mov	r1, r5
 226 00bc 0120     		movs	r0, #1
 227 00be FFF7FEFF 		bl	cam_advanced_config
 228              	.LVL17:
ARM GAS  C:\Users\marwa\AppData\Local\Temp\ccyH9oMm.s 			page 5


 229 00c2 78BB     		cbnz	r0, .L27
 230              	.L9:
 231              		.loc 1 163 0
 232 00c4 214B     		ldr	r3, .L29+24
 233 00c6 1D78     		ldrb	r5, [r3]	@ zero_extendqisi2
 234 00c8 DDB1     		cbz	r5, .L28
 235              	.L11:
 236 00ca 214E     		ldr	r6, .L29+28
 237              		.loc 1 175 0
 238 00cc FFF7FEFF 		bl	spi_image_transfer_enable
 239              	.LVL18:
 240              		.loc 1 180 0
 241 00d0 B046     		mov	r8, r6
 242              		.loc 1 177 0
 243 00d2 FFF7FEFF 		bl	mpu9250_magnetometer_setup
 244              	.LVL19:
 245              		.loc 1 180 0
 246 00d6 02E0     		b	.L13
 247              	.L14:
 248              		.loc 1 182 0
 249 00d8 0120     		movs	r0, #1
 250 00da FFF7FEFF 		bl	chThdSleep
 251              	.LVL20:
 252              	.L13:
 253              		.loc 1 180 0
 254 00de 3268     		ldr	r2, [r6]
 255 00e0 0123     		movs	r3, #1
 256 00e2 D569     		ldr	r5, [r2, #28]
 257 00e4 0DF11301 		add	r1, sp, #19
 258 00e8 1A46     		mov	r2, r3
 259 00ea 4046     		mov	r0, r8
 260 00ec A847     		blx	r5
 261              	.LVL21:
 262 00ee 0028     		cmp	r0, #0
 263 00f0 F2D1     		bne	.L14
 264              		.loc 1 184 0
 265 00f2 0123     		movs	r3, #1
 266 00f4 89F80030 		strb	r3, [r9]
 267              	.L23:
 268 00f8 3B78     		ldrb	r3, [r7]	@ zero_extendqisi2
 269              		.loc 1 185 0
 270 00fa A4E7     		b	.L2
 271              	.L25:
 272              		.loc 1 189 0
 273 00fc FFF7FEFF 		bl	run_asercom2
 274              	.LVL22:
 275 0100 C8E7     		b	.L15
 276              	.L28:
 277              		.loc 1 165 0
 278 0102 2946     		mov	r1, r5
 279 0104 4FF40070 		mov	r0, #512
 280 0108 FFF7FEFF 		bl	cam_set_exposure
 281              	.LVL23:
 282              		.loc 1 167 0
 283 010c 2846     		mov	r0, r5
 284 010e FFF7FEFF 		bl	dcmi_set_capture_mode
 285              	.LVL24:
ARM GAS  C:\Users\marwa\AppData\Local\Temp\ccyH9oMm.s 			page 6


 286              		.loc 1 169 0
 287 0112 FFF7FEFF 		bl	dcmi_prepare
 288              	.LVL25:
 289 0116 0028     		cmp	r0, #0
 290 0118 D7DA     		bge	.L11
 291              		.loc 1 171 0
 292 011a 0121     		movs	r1, #1
 293 011c 0220     		movs	r0, #2
 294 011e FFF7FEFF 		bl	set_led
 295              	.LVL26:
 296 0122 D2E7     		b	.L11
 297              	.L27:
 298              		.loc 1 160 0
 299 0124 2846     		mov	r0, r5
 300 0126 0121     		movs	r1, #1
 301 0128 FFF7FEFF 		bl	set_led
 302              	.LVL27:
 303 012c CAE7     		b	.L9
 304              	.L26:
 305              		.loc 1 196 0
 306 012e FFF7FEFF 		bl	__stack_chk_fail
 307              	.LVL28:
 308              	.L30:
 309 0132 00BF     		.align	2
 310              	.L29:
 311 0134 00000000 		.word	ch
 312 0138 00000000 		.word	.LANCHOR0
 313 013c 00000000 		.word	.LC0
 314 0140 00000000 		.word	.LANCHOR1
 315 0144 00000000 		.word	.LANCHOR2
 316 0148 0C000000 		.word	.LC1
 317 014c 00000000 		.word	.LANCHOR5
 318 0150 00000000 		.word	SD3
 319 0154 00000000 		.word	__stack_chk_guard
 320 0158 00000000 		.word	.LANCHOR3
 321 015c 00000000 		.word	.LANCHOR4
 322              		.cfi_endproc
 323              	.LFE264:
 324              		.size	selector_thd, .-selector_thd
 325              		.section	.text.get_one_time,"ax",%progbits
 326              		.align	1
 327              		.p2align 4,,15
 328              		.global	get_one_time
 329              		.syntax unified
 330              		.thumb
 331              		.thumb_func
 332              		.fpu fpv4-sp-d16
 333              		.type	get_one_time, %function
 334              	get_one_time:
 335              	.LFB261:
 336              		.loc 1 67 0
 337              		.cfi_startproc
 338              		@ args = 0, pretend = 0, frame = 8
 339              		@ frame_needed = 0, uses_anonymous_args = 0
 340 0000 00B5     		push	{lr}
 341              		.cfi_def_cfa_offset 4
 342              		.cfi_offset 14, -4
ARM GAS  C:\Users\marwa\AppData\Local\Temp\ccyH9oMm.s 			page 7


 343 0002 074B     		ldr	r3, .L35
 344              		.loc 1 68 0
 345 0004 0749     		ldr	r1, .L35+4
 346              		.loc 1 67 0
 347 0006 1A68     		ldr	r2, [r3]
 348              		.loc 1 69 0
 349 0008 0878     		ldrb	r0, [r1]	@ zero_extendqisi2
 350              		.loc 1 67 0
 351 000a 83B0     		sub	sp, sp, #12
 352              		.cfi_def_cfa_offset 16
 353              		.loc 1 67 0
 354 000c 0192     		str	r2, [sp, #4]
 355              		.loc 1 69 0
 356 000e 019A     		ldr	r2, [sp, #4]
 357 0010 1B68     		ldr	r3, [r3]
 358 0012 9A42     		cmp	r2, r3
 359 0014 02D1     		bne	.L34
 360 0016 03B0     		add	sp, sp, #12
 361              		.cfi_remember_state
 362              		.cfi_def_cfa_offset 4
 363              		@ sp needed
 364 0018 5DF804FB 		ldr	pc, [sp], #4
 365              	.L34:
 366              		.cfi_restore_state
 367 001c FFF7FEFF 		bl	__stack_chk_fail
 368              	.LVL29:
 369              	.L36:
 370              		.align	2
 371              	.L35:
 372 0020 00000000 		.word	__stack_chk_guard
 373 0024 00000000 		.word	.LANCHOR6
 374              		.cfi_endproc
 375              	.LFE261:
 376              		.size	get_one_time, .-get_one_time
 377              		.section	.text.get_demo15_state_1,"ax",%progbits
 378              		.align	1
 379              		.p2align 4,,15
 380              		.global	get_demo15_state_1
 381              		.syntax unified
 382              		.thumb
 383              		.thumb_func
 384              		.fpu fpv4-sp-d16
 385              		.type	get_demo15_state_1, %function
 386              	get_demo15_state_1:
 387              	.LFB262:
 388              		.loc 1 71 0
 389              		.cfi_startproc
 390              		@ args = 0, pretend = 0, frame = 8
 391              		@ frame_needed = 0, uses_anonymous_args = 0
 392 0000 00B5     		push	{lr}
 393              		.cfi_def_cfa_offset 4
 394              		.cfi_offset 14, -4
 395 0002 094B     		ldr	r3, .L41
 396              		.loc 1 72 0
 397 0004 0949     		ldr	r1, .L41+4
 398              		.loc 1 71 0
 399 0006 1A68     		ldr	r2, [r3]
ARM GAS  C:\Users\marwa\AppData\Local\Temp\ccyH9oMm.s 			page 8


 400              		.loc 1 72 0
 401 0008 0878     		ldrb	r0, [r1]	@ zero_extendqisi2
 402              		.loc 1 71 0
 403 000a 83B0     		sub	sp, sp, #12
 404              		.cfi_def_cfa_offset 16
 405              		.loc 1 73 0
 406 000c 0030     		adds	r0, r0, #0
 407              		.loc 1 71 0
 408 000e 0192     		str	r2, [sp, #4]
 409              		.loc 1 73 0
 410 0010 019A     		ldr	r2, [sp, #4]
 411 0012 1B68     		ldr	r3, [r3]
 412 0014 18BF     		it	ne
 413 0016 0120     		movne	r0, #1
 414 0018 9A42     		cmp	r2, r3
 415 001a 02D1     		bne	.L40
 416 001c 03B0     		add	sp, sp, #12
 417              		.cfi_remember_state
 418              		.cfi_def_cfa_offset 4
 419              		@ sp needed
 420 001e 5DF804FB 		ldr	pc, [sp], #4
 421              	.L40:
 422              		.cfi_restore_state
 423 0022 FFF7FEFF 		bl	__stack_chk_fail
 424              	.LVL30:
 425              	.L42:
 426 0026 00BF     		.align	2
 427              	.L41:
 428 0028 00000000 		.word	__stack_chk_guard
 429 002c 00000000 		.word	.LANCHOR7
 430              		.cfi_endproc
 431              	.LFE262:
 432              		.size	get_demo15_state_1, .-get_demo15_state_1
 433              		.section	.text.startup.main,"ax",%progbits
 434              		.align	1
 435              		.p2align 4,,15
 436              		.global	main
 437              		.syntax unified
 438              		.thumb
 439              		.thumb_func
 440              		.fpu fpv4-sp-d16
 441              		.type	main, %function
 442              	main:
 443              	.LFB265:
 444              		.loc 1 199 0
 445              		.cfi_startproc
 446              		@ Volatile: function does not return.
 447              		@ args = 0, pretend = 0, frame = 8
 448              		@ frame_needed = 0, uses_anonymous_args = 0
 449 0000 80B5     		push	{r7, lr}
 450              		.cfi_def_cfa_offset 8
 451              		.cfi_offset 7, -8
 452              		.cfi_offset 14, -4
 453 0002 584B     		ldr	r3, .L56
 454 0004 584D     		ldr	r5, .L56+4
 455 0006 1B68     		ldr	r3, [r3]
 456 0008 584E     		ldr	r6, .L56+8
ARM GAS  C:\Users\marwa\AppData\Local\Temp\ccyH9oMm.s 			page 9


 457 000a 86B0     		sub	sp, sp, #24
 458              		.cfi_def_cfa_offset 32
 459              		.loc 1 262 0
 460 000c 0127     		movs	r7, #1
 461              		.loc 1 199 0
 462 000e 0593     		str	r3, [sp, #20]
 463              		.loc 1 201 0
 464 0010 FFF7FEFF 		bl	halInit
 465              	.LVL31:
 466              		.loc 1 202 0
 467 0014 FFF7FEFF 		bl	chSysInit
 468              	.LVL32:
 469              		.loc 1 203 0
 470 0018 FFF7FEFF 		bl	mpu_init
 471              	.LVL33:
 472              		.loc 1 206 0
 473 001c 544A     		ldr	r2, .L56+12
 474 001e 5549     		ldr	r1, .L56+16
 475 0020 5548     		ldr	r0, .L56+20
 476 0022 FFF7FEFF 		bl	messagebus_init
 477              	.LVL34:
 478              		.loc 1 208 0
 479 0026 0022     		movs	r2, #0
 480 0028 1146     		mov	r1, r2
 481 002a 5448     		ldr	r0, .L56+24
 482 002c FFF7FEFF 		bl	parameter_namespace_declare
 483              	.LVL35:
 484              		.loc 1 211 0
 485 0030 FFF7FEFF 		bl	clear_leds
 486              	.LVL36:
 487              		.loc 1 212 0
 488 0034 0020     		movs	r0, #0
 489 0036 FFF7FEFF 		bl	set_body_led
 490              	.LVL37:
 491              		.loc 1 213 0
 492 003a 0020     		movs	r0, #0
 493 003c FFF7FEFF 		bl	set_front_led
 494              	.LVL38:
 495              		.loc 1 214 0
 496 0040 FFF7FEFF 		bl	usb_start
 497              	.LVL39:
 498              		.loc 1 215 0
 499 0044 FFF7FEFF 		bl	dcmi_start
 500              	.LVL40:
 501              		.loc 1 216 0
 502 0048 FFF7FEFF 		bl	cam_start
 503              	.LVL41:
 504              		.loc 1 217 0
 505 004c FFF7FEFF 		bl	motors_init
 506              	.LVL42:
 507              		.loc 1 218 0
 508 0050 0020     		movs	r0, #0
 509 0052 FFF7FEFF 		bl	proximity_start
 510              	.LVL43:
 511              		.loc 1 219 0
 512 0056 FFF7FEFF 		bl	battery_level_start
 513              	.LVL44:
ARM GAS  C:\Users\marwa\AppData\Local\Temp\ccyH9oMm.s 			page 10


 514              		.loc 1 220 0
 515 005a FFF7FEFF 		bl	dac_start
 516              	.LVL45:
 517              		.loc 1 221 0
 518 005e FFF7FEFF 		bl	exti_start
 519              	.LVL46:
 520              		.loc 1 222 0
 521 0062 FFF7FEFF 		bl	imu_start
 522              	.LVL47:
 523              		.loc 1 223 0
 524 0066 FFF7FEFF 		bl	ir_remote_start
 525              	.LVL48:
 526              		.loc 1 224 0
 527 006a FFF7FEFF 		bl	spi_comm_start
 528              	.LVL49:
 529              		.loc 1 225 0
 530 006e FFF7FEFF 		bl	VL53L0X_start
 531              	.LVL50:
 532              		.loc 1 226 0
 533 0072 FFF7FEFF 		bl	serial_start
 534              	.LVL51:
 535              		.loc 1 227 0
 536 0076 0020     		movs	r0, #0
 537 0078 FFF7FEFF 		bl	mic_start
 538              	.LVL52:
 539              		.loc 1 228 0
 540 007c FFF7FEFF 		bl	sdio_start
 541              	.LVL53:
 542              		.loc 1 229 0
 543 0080 FFF7FEFF 		bl	playMelodyStart
 544              	.LVL54:
 545              		.loc 1 230 0
 546 0084 FFF7FEFF 		bl	playSoundFileStart
 547              	.LVL55:
 548              		.loc 1 231 0
 549 0088 FFF7FEFF 		bl	ground_start
 550              	.LVL56:
 551              		.loc 1 233 0
 552 008c FFF7FEFF 		bl	grid_move_start
 553              	.LVL57:
 554              		.loc 1 234 0
 555 0090 FFF7FEFF 		bl	ir_sensors_start
 556              	.LVL58:
 557              		.loc 1 237 0
 558 0094 3A4A     		ldr	r2, .L56+28
 559 0096 3949     		ldr	r1, .L56+24
 560 0098 3A48     		ldr	r0, .L56+32
 561 009a FFF7FEFF 		bl	parameter_namespace_declare
 562              	.LVL59:
 563              		.loc 1 238 0
 564 009e 3948     		ldr	r0, .L56+32
 565 00a0 FFF7FEFF 		bl	aseba_declare_parameters
 566              	.LVL60:
 567              	.LBB72:
 568              	.LBB73:
 569              		.loc 1 89 0
 570 00a4 3849     		ldr	r1, .L56+36
ARM GAS  C:\Users\marwa\AppData\Local\Temp\ccyH9oMm.s 			page 11


 571 00a6 3548     		ldr	r0, .L56+24
 572 00a8 FFF7FEFF 		bl	config_load
 573              	.LVL61:
 574              	.LBE73:
 575              	.LBE72:
 576              		.loc 1 245 0
 577 00ac FFF7FEFF 		bl	aseba_vm_init
 578              	.LVL62:
 579              		.loc 1 246 0
 580 00b0 3648     		ldr	r0, .L56+40
 581 00b2 FFF7FEFF 		bl	aseba_can_start
 582              	.LVL63:
 583              		.loc 1 248 0
 584 00b6 0023     		movs	r3, #0
 585 00b8 0093     		str	r3, [sp]
 586 00ba 3548     		ldr	r0, .L56+44
 587 00bc 354B     		ldr	r3, .L56+48
 588 00be 4022     		movs	r2, #64
 589 00c0 40F67811 		movw	r1, #2424
 590 00c4 FFF7FEFF 		bl	chThdCreateStatic
 591              	.LVL64:
 592              	.L44:
 593              		.loc 1 254 0
 594 00c8 6420     		movs	r0, #100
 595 00ca FFF7FEFF 		bl	chThdSleep
 596              	.LVL65:
 597              		.loc 1 255 0
 598 00ce FFF7FEFF 		bl	get_object_found
 599              	.LVL66:
 600 00d2 08B1     		cbz	r0, .L45
 601              		.loc 1 255 0 is_stmt 0 discriminator 1
 602 00d4 2C78     		ldrb	r4, [r5]	@ zero_extendqisi2
 603 00d6 74B3     		cbz	r4, .L55
 604              	.L45:
 605              		.loc 1 272 0 is_stmt 1
 606 00d8 FFF7FEFF 		bl	get_object_found
 607              	.LVL67:
 608 00dc 0028     		cmp	r0, #0
 609 00de F3D1     		bne	.L44
 610              		.loc 1 272 0 is_stmt 0 discriminator 1
 611 00e0 2B78     		ldrb	r3, [r5]	@ zero_extendqisi2
 612 00e2 002B     		cmp	r3, #0
 613 00e4 F0D0     		beq	.L44
 614              		.loc 1 272 0 discriminator 2
 615 00e6 3478     		ldrb	r4, [r6]	@ zero_extendqisi2
 616 00e8 002C     		cmp	r4, #0
 617 00ea EDD1     		bne	.L44
 618              		.loc 1 276 0 is_stmt 1
 619 00ec FFF7FEFF 		bl	left_motor_set_speed
 620              	.LVL68:
 621              		.loc 1 277 0
 622 00f0 2046     		mov	r0, r4
 623 00f2 FFF7FEFF 		bl	right_motor_set_speed
 624              	.LVL69:
 625              		.loc 1 279 0
 626 00f6 3770     		strb	r7, [r6]
 627              		.loc 1 280 0
ARM GAS  C:\Users\marwa\AppData\Local\Temp\ccyH9oMm.s 			page 12


 628 00f8 FFF7FEFF 		bl	dcmi_release
 629              	.LVL70:
 630              		.loc 1 281 0
 631 00fc 8023     		movs	r3, #128
 632 00fe 4FF4F072 		mov	r2, #480
 633 0102 2146     		mov	r1, r4
 634 0104 CDE90133 		strd	r3, r3, [sp, #4]
 635 0108 0092     		str	r2, [sp]
 636 010a 4FF42073 		mov	r3, #640
 637 010e 2246     		mov	r2, r4
 638 0110 0120     		movs	r0, #1
 639 0112 FFF7FEFF 		bl	cam_advanced_config
 640              	.LVL71:
 641              		.loc 1 282 0
 642 0116 FFF7FEFF 		bl	dcmi_prepare
 643              	.LVL72:
 644              		.loc 1 283 0
 645 011a FFF7FEFF 		bl	spi_image_transfer_enable
 646              	.LVL73:
 647              		.loc 1 284 0
 648 011e FFF7FEFF 		bl	spi_comm_resume
 649              	.LVL74:
 650              		.loc 1 254 0
 651 0122 6420     		movs	r0, #100
 652 0124 FFF7FEFF 		bl	chThdSleep
 653              	.LVL75:
 654              		.loc 1 255 0
 655 0128 FFF7FEFF 		bl	get_object_found
 656              	.LVL76:
 657 012c 0028     		cmp	r0, #0
 658 012e D3D0     		beq	.L45
 659 0130 2C78     		ldrb	r4, [r5]	@ zero_extendqisi2
 660 0132 002C     		cmp	r4, #0
 661 0134 D0D1     		bne	.L45
 662              	.L55:
 663              		.loc 1 257 0
 664 0136 FFF7FEFF 		bl	spi_image_transfer_disable
 665              	.LVL77:
 666              		.loc 1 258 0
 667 013a FFF7FEFF 		bl	spi_comm_suspend
 668              	.LVL78:
 669              		.loc 1 260 0
 670 013e 2046     		mov	r0, r4
 671 0140 FFF7FEFF 		bl	left_motor_set_speed
 672              	.LVL79:
 673              		.loc 1 261 0
 674 0144 2046     		mov	r0, r4
 675 0146 FFF7FEFF 		bl	right_motor_set_speed
 676              	.LVL80:
 677              		.loc 1 262 0
 678 014a 0120     		movs	r0, #1
 679 014c FFF7FEFF 		bl	set_enabled_motors
 680              	.LVL81:
 681              		.loc 1 264 0
 682 0150 FFF7FEFF 		bl	dcmi_release
 683              	.LVL82:
 684              		.loc 1 265 0
ARM GAS  C:\Users\marwa\AppData\Local\Temp\ccyH9oMm.s 			page 13


 685 0154 FFF7FEFF 		bl	dcmi_prepare
 686              	.LVL83:
 687              		.loc 1 267 0
 688 0158 FFF7FEFF 		bl	process_image_start
 689              	.LVL84:
 690              		.loc 1 268 0
 691 015c FFF7FEFF 		bl	pi_regulator_start
 692              	.LVL85:
 693              		.loc 1 270 0
 694 0160 2F70     		strb	r7, [r5]
 695 0162 B9E7     		b	.L45
 696              	.L57:
 697              		.align	2
 698              	.L56:
 699 0164 00000000 		.word	__stack_chk_guard
 700 0168 00000000 		.word	.LANCHOR6
 701 016c 00000000 		.word	.LANCHOR5
 702 0170 00000000 		.word	.LANCHOR8
 703 0174 00000000 		.word	.LANCHOR9
 704 0178 00000000 		.word	.LANCHOR1
 705 017c 00000000 		.word	.LANCHOR10
 706 0180 00000000 		.word	.LC2
 707 0184 00000000 		.word	.LANCHOR11
 708 0188 00000000 		.word	_config_start
 709 018c 00000000 		.word	vmState
 710 0190 00000000 		.word	.LANCHOR12
 711 0194 00000000 		.word	selector_thd
 712              		.cfi_endproc
 713              	.LFE265:
 714              		.size	main, .-main
 715              		.section	.text.__stack_chk_fail,"ax",%progbits
 716              		.align	1
 717              		.p2align 4,,15
 718              		.global	__stack_chk_fail
 719              		.syntax unified
 720              		.thumb
 721              		.thumb_func
 722              		.fpu fpv4-sp-d16
 723              		.type	__stack_chk_fail, %function
 724              	__stack_chk_fail:
 725              	.LFB266:
 726              		.loc 1 293 0
 727              		.cfi_startproc
 728              		@ args = 0, pretend = 0, frame = 8
 729              		@ frame_needed = 0, uses_anonymous_args = 0
 730 0000 00B5     		push	{lr}
 731              		.cfi_def_cfa_offset 4
 732              		.cfi_offset 14, -4
 733 0002 084B     		ldr	r3, .L63
 734 0004 83B0     		sub	sp, sp, #12
 735              		.cfi_def_cfa_offset 16
 736              		.loc 1 293 0
 737 0006 1A68     		ldr	r2, [r3]
 738 0008 0192     		str	r2, [sp, #4]
 739              		.loc 1 294 0
 740 000a 019A     		ldr	r2, [sp, #4]
 741 000c 1B68     		ldr	r3, [r3]
ARM GAS  C:\Users\marwa\AppData\Local\Temp\ccyH9oMm.s 			page 14


 742 000e 9A42     		cmp	r2, r3
 743 0010 05D1     		bne	.L62
 744 0012 0548     		ldr	r0, .L63+4
 745              		.loc 1 295 0
 746 0014 03B0     		add	sp, sp, #12
 747              		.cfi_remember_state
 748              		.cfi_def_cfa_offset 4
 749              		@ sp needed
 750 0016 5DF804EB 		ldr	lr, [sp], #4
 751              		.cfi_restore 14
 752              		.cfi_def_cfa_offset 0
 753              		.loc 1 294 0
 754 001a FFF7FEBF 		b	chSysHalt
 755              	.LVL86:
 756              	.L62:
 757              		.cfi_restore_state
 758 001e FFF7FEFF 		bl	__stack_chk_fail
 759              	.LVL87:
 760              	.L64:
 761 0022 00BF     		.align	2
 762              	.L63:
 763 0024 00000000 		.word	__stack_chk_guard
 764 0028 00000000 		.word	.LC3
 765              		.cfi_endproc
 766              	.LFE266:
 767              		.size	__stack_chk_fail, .-__stack_chk_fail
 768              		.global	__stack_chk_guard
 769              		.global	aseba_ns
 770              		.global	parameter_root
 771              		.global	bus_condvar
 772              		.global	bus_lock
 773              		.global	bus
 774              		.global	one_time
 775              		.global	one_time_2
 776              		.global	demo15_state_1
 777              		.global	demo15_state
 778              		.global	stop_loop
 779              		.section	.bss.aseba_ns,"aw",%nobits
 780              		.align	2
 781              		.set	.LANCHOR11,. + 0
 782              		.type	aseba_ns, %object
 783              		.size	aseba_ns, 24
 784              	aseba_ns:
 785 0000 00000000 		.space	24
 785      00000000 
 785      00000000 
 785      00000000 
 785      00000000 
 786              		.section	.bss.bus,"aw",%nobits
 787              		.align	2
 788              		.set	.LANCHOR1,. + 0
 789              		.type	bus, %object
 790              		.size	bus, 12
 791              	bus:
 792 0000 00000000 		.space	12
 792      00000000 
 792      00000000 
ARM GAS  C:\Users\marwa\AppData\Local\Temp\ccyH9oMm.s 			page 15


 793              		.section	.bss.demo15_state,"aw",%nobits
 794              		.set	.LANCHOR4,. + 0
 795              		.type	demo15_state, %object
 796              		.size	demo15_state, 1
 797              	demo15_state:
 798 0000 00       		.space	1
 799              		.section	.bss.demo15_state_1,"aw",%nobits
 800              		.set	.LANCHOR7,. + 0
 801              		.type	demo15_state_1, %object
 802              		.size	demo15_state_1, 1
 803              	demo15_state_1:
 804 0000 00       		.space	1
 805              		.section	.bss.one_time,"aw",%nobits
 806              		.set	.LANCHOR6,. + 0
 807              		.type	one_time, %object
 808              		.size	one_time, 1
 809              	one_time:
 810 0000 00       		.space	1
 811              		.section	.bss.one_time_2,"aw",%nobits
 812              		.set	.LANCHOR5,. + 0
 813              		.type	one_time_2, %object
 814              		.size	one_time_2, 1
 815              	one_time_2:
 816 0000 00       		.space	1
 817              		.section	.bss.parameter_root,"aw",%nobits
 818              		.align	2
 819              		.set	.LANCHOR10,. + 0
 820              		.type	parameter_root, %object
 821              		.size	parameter_root, 24
 822              	parameter_root:
 823 0000 00000000 		.space	24
 823      00000000 
 823      00000000 
 823      00000000 
 823      00000000 
 824              		.section	.bss.selector_thd_wa,"aw",%nobits
 825              		.align	3
 826              		.set	.LANCHOR12,. + 0
 827              		.type	selector_thd_wa, %object
 828              		.size	selector_thd_wa, 2424
 829              	selector_thd_wa:
 830 0000 00000000 		.space	2424
 830      00000000 
 830      00000000 
 830      00000000 
 830      00000000 
 831              		.section	.bss.stop_loop,"aw",%nobits
 832              		.set	.LANCHOR2,. + 0
 833              		.type	stop_loop, %object
 834              		.size	stop_loop, 1
 835              	stop_loop:
 836 0000 00       		.space	1
 837              		.section	.data.__stack_chk_guard,"aw",%progbits
 838              		.align	2
 839              		.type	__stack_chk_guard, %object
 840              		.size	__stack_chk_guard, 4
 841              	__stack_chk_guard:
ARM GAS  C:\Users\marwa\AppData\Local\Temp\ccyH9oMm.s 			page 16


 842 0000 96E3DEE2 		.word	-488709226
 843              		.section	.data.bus_condvar,"aw",%progbits
 844              		.align	2
 845              		.set	.LANCHOR8,. + 0
 846              		.type	bus_condvar, %object
 847              		.size	bus_condvar, 8
 848              	bus_condvar:
 849 0000 00000000 		.word	bus_condvar
 850 0004 00000000 		.word	bus_condvar
 851              		.section	.data.bus_lock,"aw",%progbits
 852              		.align	2
 853              		.set	.LANCHOR9,. + 0
 854              		.type	bus_lock, %object
 855              		.size	bus_lock, 20
 856              	bus_lock:
 857 0000 00000000 		.word	bus_lock
 858 0004 00000000 		.word	bus_lock
 859 0008 00000000 		.word	0
 860 000c 00000000 		.word	0
 861 0010 00000000 		.word	0
 862              		.section	.rodata.__FUNCTION__.15136,"a",%progbits
 863              		.align	2
 864              		.set	.LANCHOR0,. + 0
 865              		.type	__FUNCTION__.15136, %object
 866              		.size	__FUNCTION__.15136, 13
 867              	__FUNCTION__.15136:
 868 0000 73656C65 		.ascii	"selector_thd\000"
 868      63746F72 
 868      5F746864 
 868      00
 869              		.section	.rodata.__func__.9289,"a",%progbits
 870              		.align	2
 871              		.set	.LANCHOR3,. + 0
 872              		.type	__func__.9289, %object
 873              		.size	__func__.9289, 12
 874              	__func__.9289:
 875 0000 63685379 		.ascii	"chSysUnlock\000"
 875      73556E6C 
 875      6F636B00 
 876              		.section	.rodata.__stack_chk_fail.str1.4,"aMS",%progbits,1
 877              		.align	2
 878              	.LC3:
 879 0000 53746163 		.ascii	"Stack smashing detected\000"
 879      6B20736D 
 879      61736869 
 879      6E672064 
 879      65746563 
 880              		.section	.rodata.main.str1.4,"aMS",%progbits,1
 881              		.align	2
 882              	.LC2:
 883 0000 61736562 		.ascii	"aseba\000"
 883      6100
 884              		.section	.rodata.selector_thd.str1.4,"aMS",%progbits,1
 885              		.align	2
 886              	.LC0:
 887 0000 2F70726F 		.ascii	"/proximity\000"
 887      78696D69 
ARM GAS  C:\Users\marwa\AppData\Local\Temp\ccyH9oMm.s 			page 17


 887      747900
 888 000b 00       		.space	1
 889              	.LC1:
 890 000c 2F696D75 		.ascii	"/imu\000"
 890      00
 891              		.text
 892              	.Letext0:
 893              		.file 6 "c:\\users\\marwa\\onedrive\\documents\\ide_robots\\epuck2_utils\\arm_gcc_toolchain\\arm-n
 894              		.file 7 "c:\\users\\marwa\\onedrive\\documents\\ide_robots\\epuck2_utils\\arm_gcc_toolchain\\lib\\
 895              		.file 8 "c:\\users\\marwa\\onedrive\\documents\\ide_robots\\epuck2_utils\\arm_gcc_toolchain\\arm-n
 896              		.file 9 "c:\\users\\marwa\\onedrive\\documents\\ide_robots\\epuck2_utils\\arm_gcc_toolchain\\arm-n
 897              		.file 10 "c:\\users\\marwa\\onedrive\\documents\\ide_robots\\epuck2_utils\\arm_gcc_toolchain\\arm-
 898              		.file 11 "c:\\users\\marwa\\onedrive\\documents\\ide_robots\\epuck2_utils\\arm_gcc_toolchain\\arm-
 899              		.file 12 "c:\\users\\marwa\\onedrive\\documents\\ide_robots\\epuck2_utils\\arm_gcc_toolchain\\arm-
 900              		.file 13 "c:\\users\\marwa\\onedrive\\documents\\ide_robots\\epuck2_utils\\arm_gcc_toolchain\\arm-
 901              		.file 14 ".//ChibiOS//os/rt/ports/ARMCMx/compilers/GCC/chtypes.h"
 902              		.file 15 ".//ChibiOS//os/rt/include/chsystypes.h"
 903              		.file 16 ".//ChibiOS//os/rt/include/chschd.h"
 904              		.file 17 ".//ChibiOS//os/ext/CMSIS/include/core_cm4.h"
 905              		.file 18 ".//ChibiOS//os/ext/CMSIS/ST/system_stm32f4xx.h"
 906              		.file 19 ".//ChibiOS//os/ext/CMSIS/ST/stm32f407xx.h"
 907              		.file 20 ".//ChibiOS//os/rt/ports/ARMCMx/chcore.h"
 908              		.file 21 ".//ChibiOS//os/rt/ports/ARMCMx/chcore_v7m.h"
 909              		.file 22 ".//ChibiOS//os/rt/include/chdebug.h"
 910              		.file 23 ".//ChibiOS//os/rt/include/chtm.h"
 911              		.file 24 ".//ChibiOS//os/rt/include/chstats.h"
 912              		.file 25 ".//ChibiOS//os/rt/include/chsem.h"
 913              		.file 26 ".//ChibiOS//os/rt/include/chmtx.h"
 914              		.file 27 ".//ChibiOS//os/rt/include/chcond.h"
 915              		.file 28 ".//ChibiOS//os/rt/include/chevents.h"
 916              		.file 29 ".//ChibiOS//os/rt/include/chqueues.h"
 917              		.file 30 ".//ChibiOS//os/hal/ports/STM32/STM32F4xx/stm32_dma.h"
 918              		.file 31 ".//ChibiOS//os/hal/include/hal_ioblock.h"
 919              		.file 32 ".//ChibiOS//os/hal/ports/STM32/LLD/GPIOv2/pal_lld.h"
 920              		.file 33 ".//ChibiOS//os/hal/include/adc.h"
 921              		.file 34 ".//ChibiOS//os/hal/ports/STM32/STM32F4xx/adc_lld.h"
 922              		.file 35 ".//ChibiOS//os/hal/include/can.h"
 923              		.file 36 ".//ChibiOS//os/hal/ports/STM32/LLD/can_lld.h"
 924              		.file 37 ".//ChibiOS//os/hal/include/dac.h"
 925              		.file 38 ".//ChibiOS//os/hal/ports/STM32/LLD/DACv1/dac_lld.h"
 926              		.file 39 ".//ChibiOS//os/hal/include/ext.h"
 927              		.file 40 ".//ChibiOS//os/hal/ports/STM32/LLD/ext_lld.h"
 928              		.file 41 ".//ChibiOS//os/hal/include/gpt.h"
 929              		.file 42 ".//ChibiOS//os/hal/ports/STM32/LLD/TIMv1/gpt_lld.h"
 930              		.file 43 ".//ChibiOS//os/hal/ports/STM32/LLD/TIMv1/stm32_tim.h"
 931              		.file 44 ".//ChibiOS//os/hal/include/i2c.h"
 932              		.file 45 ".//ChibiOS//os/hal/ports/STM32/LLD/I2Cv1/i2c_lld.h"
 933              		.file 46 ".//ChibiOS//os/hal/include/i2s.h"
 934              		.file 47 ".//ChibiOS//os/hal/ports/STM32/LLD/SPIv1/i2s_lld.h"
 935              		.file 48 ".//ChibiOS//os/hal/include/pwm.h"
 936              		.file 49 ".//ChibiOS//os/hal/ports/STM32/LLD/TIMv1/pwm_lld.h"
 937              		.file 50 ".//ChibiOS//os/hal/include/serial.h"
 938              		.file 51 ".//ChibiOS//os/hal/ports/STM32/LLD/USARTv1/serial_lld.h"
 939              		.file 52 ".//ChibiOS//os/hal/include/sdc.h"
 940              		.file 53 ".//ChibiOS//os/hal/ports/STM32/LLD/sdc_lld.h"
 941              		.file 54 ".//ChibiOS//os/hal/include/spi.h"
 942              		.file 55 ".//ChibiOS//os/hal/ports/STM32/LLD/SPIv1/spi_lld.h"
ARM GAS  C:\Users\marwa\AppData\Local\Temp\ccyH9oMm.s 			page 18


 943              		.file 56 ".//ChibiOS//os/hal/include/usb.h"
 944              		.file 57 ".//ChibiOS//os/hal/ports/STM32/LLD/OTGv1/usb_lld.h"
 945              		.file 58 ".//ChibiOS//os/hal/ports/STM32/LLD/OTGv1/stm32_otg.h"
 946              		.file 59 ".//ChibiOS//os/hal/include/serial_usb.h"
 947              		.file 60 ".//ChibiOS//os/various/shell.h"
 948              		.file 61 ".//aseba/common/types.h"
 949              		.file 62 ".//aseba/vm/vm.h"
 950              		.file 63 ".//src/parameter/parameter.h"
 951              		.file 64 ".//src/aseba_vm/aseba_node.h"
 952              		.file 65 ".//aseba/vm/natives.h"
 953              		.file 66 ".//src/sensors/mpu9250.h"
 954              		.file 67 ".//src/sensors/imu.h"
 955              		.file 68 ".//src/leds.h"
 956              		.file 69 ".//src/aseba_vm/skel_user.h"
 957              		.file 70 ".//src/camera/camera.h"
 958              		.file 71 ".//src/sensors/proximity.h"
 959              		.file 72 ".//src/exti.h"
 960              		.file 73 ".//ChibiOS_ext/os/hal/include/../ports/STM32/STM32F4xx/dcmi_lld.h"
 961              		.file 74 ".//src/camera/dcmi_camera.h"
 962              		.file 75 "c:\\users\\marwa\\onedrive\\documents\\ide_robots\\epuck2_utils\\arm_gcc_toolchain\\arm-
 963              		.file 76 ".//src/msgbus/messagebus.h"
 964              		.file 77 ".//src/main.h"
 965              		.file 78 ".//src/motors.h"
 966              		.file 79 ".//src/usbcfg.h"
 967              		.file 80 ".//src/ircom/ircom.h"
 968              		.file 81 ".//src/grid.h"
 969              		.file 82 ".//src/config_flash_storage.h"
 970              		.file 83 ".//ChibiOS//os/hal/include/hal.h"
 971              		.file 84 ".//src/memory_protection.h"
 972              		.file 85 ".//src/sensors/battery_level.h"
 973              		.file 86 ".//src/audio/audio_thread.h"
 974              		.file 87 ".//src/ir_remote.h"
 975              		.file 88 ".//src/spi_comm.h"
 976              		.file 89 ".//src/sensors/VL53L0X/VL53L0X.h"
 977              		.file 90 ".//src/serial_comm.h"
 978              		.file 91 ".//src/audio/microphone.h"
 979              		.file 92 ".//src/sdio.h"
 980              		.file 93 ".//src/audio/play_melody.h"
 981              		.file 94 ".//src/audio/play_sound_file.h"
 982              		.file 95 ".//src/sensors/ground.h"
 983              		.file 96 ".//src/ir_sensors.h"
 984              		.file 97 ".//src/aseba_vm/aseba_can_interface.h"
 985              		.file 98 ".//ChibiOS//os/rt/include/chthreads.h"
 986              		.file 99 ".//src/pi_regulator.h"
 987              		.file 100 ".//src/process_image.h"
 988              		.file 101 ".//src/selector.h"
 989              		.file 102 ".//src/epuck1x/Asercom2.h"