ARM GAS  C:\Users\marwa\AppData\Local\Temp\ccn7Mxip.s 			page 1


   1              		.cpu cortex-m4
   2              		.eabi_attribute 27, 1
   3              		.eabi_attribute 28, 1
   4              		.eabi_attribute 20, 1
   5              		.eabi_attribute 21, 1
   6              		.eabi_attribute 23, 3
   7              		.eabi_attribute 24, 1
   8              		.eabi_attribute 25, 1
   9              		.eabi_attribute 26, 1
  10              		.eabi_attribute 30, 2
  11              		.eabi_attribute 34, 1
  12              		.eabi_attribute 18, 4
  13              		.file	"process_image.c"
  14              		.text
  15              	.Ltext0:
  16              		.cfi_sections	.debug_frame
  17              		.section	.text.CaptureImage,"ax",%progbits
  18              		.align	1
  19              		.p2align 4,,15
  20              		.syntax unified
  21              		.thumb
  22              		.thumb_func
  23              		.fpu fpv4-sp-d16
  24              		.type	CaptureImage, %function
  25              	CaptureImage:
  26              	.LFB261:
  27              		.file 1 ".//src/process_image.c"
  28              		.loc 1 117 0
  29              		.cfi_startproc
  30              		@ Volatile: function does not return.
  31              		@ args = 0, pretend = 0, frame = 8
  32              		@ frame_needed = 0, uses_anonymous_args = 0
  33              	.LVL0:
  34 0000 80B5     		push	{r7, lr}
  35              		.cfi_def_cfa_offset 8
  36              		.cfi_offset 7, -8
  37              		.cfi_offset 14, -4
  38              	.LBB52:
  39              	.LBB53:
  40              		.file 2 ".//ChibiOS//os/rt/include/chregistry.h"
  41              		.loc 2 135 0
  42 0002 204C     		ldr	r4, .L17
  43              	.LBE53:
  44              	.LBE52:
  45              		.loc 1 117 0
  46 0004 204B     		ldr	r3, .L17+4
  47              	.LBB56:
  48              	.LBB54:
  49              		.loc 2 135 0
  50 0006 A269     		ldr	r2, [r4, #24]
  51 0008 204D     		ldr	r5, .L17+8
  52 000a 2149     		ldr	r1, .L17+12
  53              	.LBE54:
  54              	.LBE56:
  55              		.loc 1 117 0
  56 000c 1B68     		ldr	r3, [r3]
  57              	.LBB57:
ARM GAS  C:\Users\marwa\AppData\Local\Temp\ccn7Mxip.s 			page 2


  58              	.LBB58:
  59              	.LBB59:
  60              	.LBB60:
  61              		.file 3 ".//ChibiOS//os/rt/include/chsys.h"
  62              		.loc 3 367 0
  63 000e 214E     		ldr	r6, .L17+16
  64              	.LBE60:
  65              	.LBE59:
  66              	.LBE58:
  67              	.LBE57:
  68              	.LBB79:
  69              	.LBB55:
  70              		.loc 2 135 0
  71 0010 9161     		str	r1, [r2, #24]
  72              	.LBE55:
  73              	.LBE79:
  74              		.loc 1 117 0
  75 0012 82B0     		sub	sp, sp, #8
  76              		.cfi_def_cfa_offset 16
  77              	.LBB80:
  78              	.LBB77:
  79              	.LBB65:
  80              	.LBB66:
  81              		.file 4 ".//ChibiOS//os/rt/include/chbsem.h"
  82              		.loc 4 271 0
  83 0014 2F46     		mov	r7, r5
  84              	.LBE66:
  85              	.LBE65:
  86              	.LBE77:
  87              	.LBE80:
  88              		.loc 1 117 0
  89 0016 0193     		str	r3, [sp, #4]
  90              	.LVL1:
  91 0018 02E0     		b	.L2
  92              	.LVL2:
  93              	.L3:
  94              		.loc 1 138 0
  95 001a 6420     		movs	r0, #100
  96 001c FFF7FEFF 		bl	chThdSleep
  97              	.LVL3:
  98              	.L2:
  99              		.loc 1 126 0
 100 0020 FFF7FEFF 		bl	get_mode_one_on
 101              	.LVL4:
 102 0024 0028     		cmp	r0, #0
 103 0026 F8D0     		beq	.L3
 104              		.loc 1 126 0 is_stmt 0 discriminator 1
 105 0028 FFF7FEFF 		bl	get_object_found
 106              	.LVL5:
 107 002c 0028     		cmp	r0, #0
 108 002e F4D0     		beq	.L3
 109              		.loc 1 129 0 is_stmt 1
 110 0030 FFF7FEFF 		bl	dcmi_capture_start
 111              	.LVL6:
 112              		.loc 1 131 0
 113 0034 FFF7FEFF 		bl	wait_image_ready
 114              	.LVL7:
ARM GAS  C:\Users\marwa\AppData\Local\Temp\ccn7Mxip.s 			page 3


 115              	.LBB81:
 116              	.LBB78:
 117              	.LBB69:
 118              	.LBB70:
 119              	.LBB71:
 120              	.LBB72:
 121              	.LBB73:
 122              		.file 5 ".//ChibiOS//os/ext/CMSIS/include/core_cmFunc.h"
 123              		.loc 5 546 0
 124 0038 2023     		movs	r3, #32
 125              		.syntax unified
 126              	@ 546 ".//ChibiOS//os/ext/CMSIS/include/core_cmFunc.h" 1
 127 003a 83F31188 		MSR basepri, r3
 128              	@ 0 "" 2
 129              	.LVL8:
 130              		.thumb
 131              		.syntax unified
 132              	.LBE73:
 133              	.LBE72:
 134              	.LBE71:
 135              		.loc 3 349 0
 136 003e FFF7FEFF 		bl	_stats_start_measure_crit_thd
 137              	.LVL9:
 138              		.loc 3 350 0
 139 0042 FFF7FEFF 		bl	_dbg_check_lock
 140              	.LVL10:
 141              	.LBE70:
 142              	.LBE69:
 143              	.LBB74:
 144              	.LBB67:
 145              		.loc 4 268 0
 146 0046 FFF7FEFF 		bl	chDbgCheckClassI
 147              	.LVL11:
 148              		.loc 4 270 0
 149 004a AB68     		ldr	r3, [r5, #8]
 150 004c 002B     		cmp	r3, #0
 151 004e 14DD     		ble	.L16
 152              	.L4:
 153              	.LVL12:
 154              	.LBE67:
 155              	.LBE74:
 156              		.loc 4 286 0
 157 0050 FFF7FEFF 		bl	chSchRescheduleS
 158              	.LVL13:
 159              	.LBB75:
 160              	.LBB64:
 161              		.loc 3 360 0
 162 0054 FFF7FEFF 		bl	_dbg_check_unlock
 163              	.LVL14:
 164              		.loc 3 361 0
 165 0058 FFF7FEFF 		bl	_stats_stop_measure_crit_thd
 166              	.LVL15:
 167              		.loc 3 367 0
 168 005c 2368     		ldr	r3, [r4]
 169 005e A342     		cmp	r3, r4
 170 0060 07D0     		beq	.L5
 171 0062 A269     		ldr	r2, [r4, #24]
ARM GAS  C:\Users\marwa\AppData\Local\Temp\ccn7Mxip.s 			page 4


 172 0064 9B68     		ldr	r3, [r3, #8]
 173 0066 9268     		ldr	r2, [r2, #8]
 174 0068 9A42     		cmp	r2, r3
 175 006a 02D2     		bcs	.L5
 176 006c 3046     		mov	r0, r6
 177 006e FFF7FEFF 		bl	chSysHalt
 178              	.LVL16:
 179              	.L5:
 180              	.LBB61:
 181              	.LBB62:
 182              	.LBB63:
 183              		.loc 5 546 0
 184 0072 0023     		movs	r3, #0
 185              		.syntax unified
 186              	@ 546 ".//ChibiOS//os/ext/CMSIS/include/core_cmFunc.h" 1
 187 0074 83F31188 		MSR basepri, r3
 188              	@ 0 "" 2
 189              	.LVL17:
 190              		.thumb
 191              		.syntax unified
 192 0078 D2E7     		b	.L2
 193              	.LVL18:
 194              	.L16:
 195              	.LBE63:
 196              	.LBE62:
 197              	.LBE61:
 198              	.LBE64:
 199              	.LBE75:
 200              	.LBB76:
 201              	.LBB68:
 202              		.loc 4 271 0
 203 007a 3846     		mov	r0, r7
 204 007c FFF7FEFF 		bl	chSemSignalI
 205              	.LVL19:
 206 0080 E6E7     		b	.L4
 207              	.L18:
 208 0082 00BF     		.align	2
 209              	.L17:
 210 0084 00000000 		.word	ch
 211 0088 00000000 		.word	__stack_chk_guard
 212 008c 00000000 		.word	.LANCHOR1
 213 0090 00000000 		.word	.LANCHOR0
 214 0094 00000000 		.word	.LANCHOR2
 215              	.LBE68:
 216              	.LBE76:
 217              	.LBE78:
 218              	.LBE81:
 219              		.cfi_endproc
 220              	.LFE261:
 221              		.size	CaptureImage, .-CaptureImage
 222              		.global	__aeabi_uldivmod
 223              		.section	.text.extract_line_width,"ax",%progbits
 224              		.align	1
 225              		.p2align 4,,15
 226              		.global	extract_line_width
 227              		.syntax unified
 228              		.thumb
ARM GAS  C:\Users\marwa\AppData\Local\Temp\ccn7Mxip.s 			page 5


 229              		.thumb_func
 230              		.fpu fpv4-sp-d16
 231              		.type	extract_line_width, %function
 232              	extract_line_width:
 233              	.LFB260:
 234              		.loc 1 27 0
 235              		.cfi_startproc
 236              		@ args = 0, pretend = 0, frame = 8
 237              		@ frame_needed = 0, uses_anonymous_args = 0
 238              	.LVL20:
 239 0000 2DE9F047 		push	{r4, r5, r6, r7, r8, r9, r10, lr}
 240              		.cfi_def_cfa_offset 32
 241              		.cfi_offset 4, -32
 242              		.cfi_offset 5, -28
 243              		.cfi_offset 6, -24
 244              		.cfi_offset 7, -20
 245              		.cfi_offset 8, -16
 246              		.cfi_offset 9, -12
 247              		.cfi_offset 10, -8
 248              		.cfi_offset 14, -4
 249 0004 474D     		ldr	r5, .L46
 250 0006 82B0     		sub	sp, sp, #8
 251              		.cfi_def_cfa_offset 40
 252              		.loc 1 27 0
 253 0008 2B68     		ldr	r3, [r5]
 254 000a 0193     		str	r3, [sp, #4]
 255              	.LVL21:
 256 000c 0446     		mov	r4, r0
 257              		.loc 1 32 0
 258 000e FFF7FEFF 		bl	get_goal_distance
 259              	.LVL22:
 260 0012 9FED457A 		vldr.32	s14, .L46+4
 261 0016 C7EE007A 		vdiv.f32	s15, s14, s0
 262 001a 631E     		subs	r3, r4, #1
 263 001c 04F19F02 		add	r2, r4, #159
 264              		.loc 1 30 0
 265 0020 0020     		movs	r0, #0
 266 0022 0021     		movs	r1, #0
 267              		.loc 1 32 0
 268 0024 FCEEE77A 		vcvt.u32.f32	s15, s15
 269 0028 17EE906A 		vmov	r6, s15	@ int
 270 002c 1FFA86F8 		uxth	r8, r6
 271              	.LVL23:
 272              	.L20:
 273              	.LBB82:
 274              		.loc 1 37 0 discriminator 3
 275 0030 13F8016F 		ldrb	r6, [r3, #1]!	@ zero_extendqisi2
 276 0034 0027     		movs	r7, #0
 277 0036 8019     		adds	r0, r0, r6
 278              	.LVL24:
 279 0038 7941     		adcs	r1, r1, r7
 280              	.LVL25:
 281              		.loc 1 35 0 discriminator 3
 282 003a 9A42     		cmp	r2, r3
 283 003c F8D1     		bne	.L20
 284              	.LBE82:
 285              		.loc 1 39 0
ARM GAS  C:\Users\marwa\AppData\Local\Temp\ccn7Mxip.s 			page 6


 286 003e A022     		movs	r2, #160
 287 0040 0023     		movs	r3, #0
 288 0042 FFF7FEFF 		bl	__aeabi_uldivmod
 289              	.LVL26:
 290 0046 2278     		ldrb	r2, [r4]	@ zero_extendqisi2
 291              		.loc 1 28 0
 292 0048 4FF0000C 		mov	ip, #0
 293 004c 0023     		movs	r3, #0
 294              	.LVL27:
 295              	.L21:
 296              		.loc 1 49 0
 297 004e 9942     		cmp	r1, r3
 298 0050 0CF10106 		add	r6, ip, #1
 299 0054 08BF     		it	eq
 300 0056 9042     		cmpeq	r0, r2
 301 0058 B6B2     		uxth	r6, r6
 302 005a 2FD2     		bcs	.L23
 303              	.L44:
 304              		.loc 1 49 0 is_stmt 0 discriminator 1
 305 005c 04EB0C03 		add	r3, r4, ip
 306 0060 5A79     		ldrb	r2, [r3, #5]	@ zero_extendqisi2
 307 0062 0023     		movs	r3, #0
 308 0064 8B42     		cmp	r3, r1
 309 0066 08BF     		it	eq
 310 0068 8242     		cmpeq	r2, r0
 311 006a 27D2     		bcs	.L23
 312              	.LVL28:
 313              		.loc 1 57 0 is_stmt 1
 314 006c 9A2E     		cmp	r6, #154
 315 006e 34D8     		bhi	.L22
 316              		.loc 1 57 0 is_stmt 0 discriminator 1
 317 0070 BCF1000F 		cmp	ip, #0
 318 0074 31D0     		beq	.L22
 319 0076 06F1FF3A 		add	r10, r6, #-1
 320 007a B646     		mov	lr, r6
 321 007c A244     		add	r10, r10, r4
 322              	.LVL29:
 323              	.L31:
 324              		.loc 1 63 0 is_stmt 1
 325 007e 1AF8012F 		ldrb	r2, [r10, #1]!	@ zero_extendqisi2
 326 0082 0023     		movs	r3, #0
 327 0084 9942     		cmp	r1, r3
 328 0086 08BF     		it	eq
 329 0088 9042     		cmpeq	r0, r2
 330 008a 1FFA8EF9 		uxth	r9, lr
 331 008e 1BD2     		bcs	.L26
 332              		.loc 1 63 0 is_stmt 0 discriminator 1
 333 0090 1AF8056C 		ldrb	r6, [r10, #-5]	@ zero_extendqisi2
 334 0094 0027     		movs	r7, #0
 335 0096 8F42     		cmp	r7, r1
 336 0098 08BF     		it	eq
 337 009a 8642     		cmpeq	r6, r0
 338 009c 14D2     		bcs	.L26
 339              	.LVL30:
 340              		.loc 1 82 0 is_stmt 1
 341 009e A9EB0C07 		sub	r7, r9, ip
 342 00a2 272F     		cmp	r7, #39
ARM GAS  C:\Users\marwa\AppData\Local\Temp\ccn7Mxip.s 			page 7


 343 00a4 31DC     		bgt	.L43
 344              	.LVL31:
 345              		.loc 1 45 0
 346 00a6 B9F19A0F 		cmp	r9, #154
 347 00aa 16D8     		bhi	.L22
 348 00ac CC46     		mov	ip, r9
 349              		.loc 1 49 0
 350 00ae 9942     		cmp	r1, r3
 351 00b0 0CF10106 		add	r6, ip, #1
 352 00b4 08BF     		it	eq
 353 00b6 9042     		cmpeq	r0, r2
 354 00b8 B6B2     		uxth	r6, r6
 355 00ba CFD3     		bcc	.L44
 356              	.LVL32:
 357              	.L23:
 358              		.loc 1 45 0 discriminator 1
 359 00bc 9A2E     		cmp	r6, #154
 360 00be 0CD8     		bhi	.L22
 361              	.LVL33:
 362              		.loc 1 45 0 is_stmt 0
 363 00c0 B446     		mov	ip, r6
 364 00c2 A25D     		ldrb	r2, [r4, r6]	@ zero_extendqisi2
 365 00c4 0023     		movs	r3, #0
 366 00c6 C2E7     		b	.L21
 367              	.LVL34:
 368              	.L26:
 369 00c8 09F10109 		add	r9, r9, #1
 370 00cc 1FFA89F9 		uxth	r9, r9
 371              	.LVL35:
 372              		.loc 1 61 0 is_stmt 1
 373 00d0 B9F1A00F 		cmp	r9, #160
 374 00d4 0EF1010E 		add	lr, lr, #1
 375 00d8 D1D1     		bne	.L31
 376              	.LVL36:
 377              	.L22:
 378              		.loc 1 105 0
 379 00da 07EE908A 		vmov	s15, r8	@ int
 380 00de DFED126A 		vldr.32	s13, .L46+4
 381              		.loc 1 113 0
 382 00e2 019A     		ldr	r2, [sp, #4]
 383 00e4 2B68     		ldr	r3, [r5]
 384              		.loc 1 105 0
 385 00e6 F8EEE77A 		vcvt.f32.s32	s15, s15
 386 00ea 86EEA77A 		vdiv.f32	s14, s13, s15
 387 00ee F3EE097A 		vmov.f32	s15, #2.5e+1
 388              		.loc 1 107 0
 389 00f2 B4EE677A 		vcmp.f32	s14, s15
 390 00f6 F1EE10FA 		vmrs	APSR_nzcv, FPSCR
 391              		.loc 1 113 0
 392 00fa D4BF     		ite	le
 393 00fc 4046     		movle	r0, r8
 394              	.LVL37:
 395 00fe 3E20     		movgt	r0, #62
 396 0100 9A42     		cmp	r2, r3
 397 0102 0CD1     		bne	.L45
 398 0104 02B0     		add	sp, sp, #8
 399              		.cfi_remember_state
ARM GAS  C:\Users\marwa\AppData\Local\Temp\ccn7Mxip.s 			page 8


 400              		.cfi_def_cfa_offset 32
 401              		@ sp needed
 402 0106 BDE8F087 		pop	{r4, r5, r6, r7, r8, r9, r10, pc}
 403              	.LVL38:
 404              	.L43:
 405              		.cfi_restore_state
 406              		.loc 1 101 0
 407 010a 09EB0C03 		add	r3, r9, ip
 408 010e 074A     		ldr	r2, .L46+8
 409 0110 5B10     		asrs	r3, r3, #1
 410              		.loc 1 100 0
 411 0112 A9EB0C0C 		sub	ip, r9, ip
 412 0116 1FFA8CF8 		uxth	r8, ip
 413              	.LVL39:
 414              		.loc 1 101 0
 415 011a 1380     		strh	r3, [r2]	@ movhi
 416 011c DDE7     		b	.L22
 417              	.LVL40:
 418              	.L45:
 419              		.loc 1 113 0
 420 011e FFF7FEFF 		bl	__stack_chk_fail
 421              	.LVL41:
 422              	.L47:
 423 0122 00BF     		.align	2
 424              	.L46:
 425 0124 00000000 		.word	__stack_chk_guard
 426 0128 0040C444 		.word	1153712128
 427 012c 00000000 		.word	.LANCHOR3
 428              		.cfi_endproc
 429              	.LFE260:
 430              		.size	extract_line_width, .-extract_line_width
 431              		.section	.text.ProcessImage,"ax",%progbits
 432              		.align	1
 433              		.p2align 4,,15
 434              		.syntax unified
 435              		.thumb
 436              		.thumb_func
 437              		.fpu fpv4-sp-d16
 438              		.type	ProcessImage, %function
 439              	ProcessImage:
 440              	.LFB262:
 441              		.loc 1 145 0
 442              		.cfi_startproc
 443              		@ args = 0, pretend = 0, frame = 336
 444              		@ frame_needed = 0, uses_anonymous_args = 0
 445              	.LVL42:
 446 0000 70B5     		push	{r4, r5, r6, lr}
 447              		.cfi_def_cfa_offset 16
 448              		.cfi_offset 4, -16
 449              		.cfi_offset 5, -12
 450              		.cfi_offset 6, -8
 451              		.cfi_offset 14, -4
 452 0002 2DED028B 		vpush.64	{d8}
 453              		.cfi_def_cfa_offset 24
 454              		.cfi_offset 80, -24
 455              		.cfi_offset 81, -20
 456              	.LBB83:
ARM GAS  C:\Users\marwa\AppData\Local\Temp\ccn7Mxip.s 			page 9


 457              	.LBB84:
 458              		.loc 2 135 0
 459 0006 1F4A     		ldr	r2, .L65
 460              	.LBE84:
 461              	.LBE83:
 462              		.loc 1 145 0
 463 0008 1F4B     		ldr	r3, .L65+4
 464              	.LBB86:
 465              	.LBB85:
 466              		.loc 2 135 0
 467 000a 9269     		ldr	r2, [r2, #24]
 468 000c 1F49     		ldr	r1, .L65+8
 469 000e 9161     		str	r1, [r2, #24]
 470              	.LBE85:
 471              	.LBE86:
 472              		.loc 1 145 0
 473 0010 D4B0     		sub	sp, sp, #336
 474              		.cfi_def_cfa_offset 360
 475              		.loc 1 150 0
 476 0012 03AC     		add	r4, sp, #12
 477              		.loc 1 145 0
 478 0014 1B68     		ldr	r3, [r3]
 479 0016 5393     		str	r3, [sp, #332]
 480              		.loc 1 150 0
 481 0018 2046     		mov	r0, r4
 482              	.LVL43:
 483 001a 4FF4A072 		mov	r2, #320
 484 001e 0021     		movs	r1, #0
 485 0020 FFF7FEFF 		bl	memset
 486              	.LVL44:
 487 0024 1A4E     		ldr	r6, .L65+12
 488              	.LBB87:
 489              	.LBB88:
 490              	.LBB89:
 491              		.loc 4 143 0
 492 0026 1B4D     		ldr	r5, .L65+16
 493              	.LBE89:
 494              	.LBE88:
 495              		.loc 1 180 0
 496 0028 9FED1B8A 		vldr.32	s16, .L65+20
 497 002c 02E0     		b	.L49
 498              	.LVL45:
 499              	.L50:
 500              	.LBE87:
 501              		.loc 1 186 0
 502 002e 6420     		movs	r0, #100
 503 0030 FFF7FEFF 		bl	chThdSleep
 504              	.LVL46:
 505              	.L49:
 506              		.loc 1 155 0
 507 0034 FFF7FEFF 		bl	get_mode_one_on
 508              	.LVL47:
 509 0038 0028     		cmp	r0, #0
 510 003a F8D0     		beq	.L50
 511              		.loc 1 155 0 is_stmt 0 discriminator 1
 512 003c FFF7FEFF 		bl	get_object_found
 513              	.LVL48:
ARM GAS  C:\Users\marwa\AppData\Local\Temp\ccn7Mxip.s 			page 10


 514 0040 0028     		cmp	r0, #0
 515 0042 F4D0     		beq	.L50
 516              	.LVL49:
 517              	.LBB93:
 518              	.LBB91:
 519              	.LBB90:
 520              		.loc 4 143 0 is_stmt 1
 521 0044 2846     		mov	r0, r5
 522 0046 FFF7FEFF 		bl	chSemWait
 523              	.LVL50:
 524              	.LBE90:
 525              	.LBE91:
 526              		.loc 1 160 0
 527 004a FFF7FEFF 		bl	dcmi_get_last_image_ptr
 528              	.LVL51:
 529 004e 0023     		movs	r3, #0
 530              	.LVL52:
 531              	.L51:
 532              	.LBB92:
 533              		.loc 1 171 0 discriminator 3
 534 0050 03F59642 		add	r2, r3, #19200
 535 0054 5910     		asrs	r1, r3, #1
 536 0056 825C     		ldrb	r2, [r0, r2]	@ zero_extendqisi2
 537 0058 0233     		adds	r3, r3, #2
 538              	.LVL53:
 539 005a 22F00702 		bic	r2, r2, #7
 540              		.loc 1 169 0 discriminator 3
 541 005e B3F5A07F 		cmp	r3, #320
 542              		.loc 1 171 0 discriminator 3
 543 0062 6254     		strb	r2, [r4, r1]
 544              		.loc 1 169 0 discriminator 3
 545 0064 F4D1     		bne	.L51
 546              	.LBE92:
 547              		.loc 1 175 0
 548 0066 2046     		mov	r0, r4
 549              	.LVL54:
 550 0068 FFF7FEFF 		bl	extract_line_width
 551              	.LVL55:
 552              		.loc 1 178 0
 553 006c 0190     		str	r0, [sp, #4]
 554 006e 0028     		cmp	r0, #0
 555 0070 E0D0     		beq	.L49
 556              		.loc 1 180 0
 557 0072 07EE900A 		vmov	s15, r0	@ int
 558 0076 F8EEE77A 		vcvt.f32.s32	s15, s15
 559 007a 88EE277A 		vdiv.f32	s14, s16, s15
 560 007e 86ED007A 		vstr.32	s14, [r6]
 561 0082 D7E7     		b	.L49
 562              	.L66:
 563              		.align	2
 564              	.L65:
 565 0084 00000000 		.word	ch
 566 0088 00000000 		.word	__stack_chk_guard
 567 008c 00000000 		.word	.LANCHOR4
 568 0090 00000000 		.word	.LANCHOR5
 569 0094 00000000 		.word	.LANCHOR1
 570 0098 0040C444 		.word	1153712128
ARM GAS  C:\Users\marwa\AppData\Local\Temp\ccn7Mxip.s 			page 11


 571              	.LBE93:
 572              		.cfi_endproc
 573              	.LFE262:
 574              		.size	ProcessImage, .-ProcessImage
 575              		.section	.text.get_distance_cm,"ax",%progbits
 576              		.align	1
 577              		.p2align 4,,15
 578              		.global	get_distance_cm
 579              		.syntax unified
 580              		.thumb
 581              		.thumb_func
 582              		.fpu fpv4-sp-d16
 583              		.type	get_distance_cm, %function
 584              	get_distance_cm:
 585              	.LFB263:
 586              		.loc 1 192 0
 587              		.cfi_startproc
 588              		@ args = 0, pretend = 0, frame = 8
 589              		@ frame_needed = 0, uses_anonymous_args = 0
 590 0000 00B5     		push	{lr}
 591              		.cfi_def_cfa_offset 4
 592              		.cfi_offset 14, -4
 593 0002 084B     		ldr	r3, .L71
 594              		.loc 1 193 0
 595 0004 0849     		ldr	r1, .L71+4
 596              		.loc 1 192 0
 597 0006 1A68     		ldr	r2, [r3]
 598              		.loc 1 194 0
 599 0008 91ED000A 		vldr.32	s0, [r1]
 600              		.loc 1 192 0
 601 000c 83B0     		sub	sp, sp, #12
 602              		.cfi_def_cfa_offset 16
 603              		.loc 1 192 0
 604 000e 0192     		str	r2, [sp, #4]
 605              		.loc 1 194 0
 606 0010 019A     		ldr	r2, [sp, #4]
 607 0012 1B68     		ldr	r3, [r3]
 608 0014 9A42     		cmp	r2, r3
 609 0016 02D1     		bne	.L70
 610 0018 03B0     		add	sp, sp, #12
 611              		.cfi_remember_state
 612              		.cfi_def_cfa_offset 4
 613              		@ sp needed
 614 001a 5DF804FB 		ldr	pc, [sp], #4
 615              	.L70:
 616              		.cfi_restore_state
 617 001e FFF7FEFF 		bl	__stack_chk_fail
 618              	.LVL56:
 619              	.L72:
 620 0022 00BF     		.align	2
 621              	.L71:
 622 0024 00000000 		.word	__stack_chk_guard
 623 0028 00000000 		.word	.LANCHOR5
 624              		.cfi_endproc
 625              	.LFE263:
 626              		.size	get_distance_cm, .-get_distance_cm
 627              		.section	.text.get_line_position,"ax",%progbits
ARM GAS  C:\Users\marwa\AppData\Local\Temp\ccn7Mxip.s 			page 12


 628              		.align	1
 629              		.p2align 4,,15
 630              		.global	get_line_position
 631              		.syntax unified
 632              		.thumb
 633              		.thumb_func
 634              		.fpu fpv4-sp-d16
 635              		.type	get_line_position, %function
 636              	get_line_position:
 637              	.LFB264:
 638              		.loc 1 197 0
 639              		.cfi_startproc
 640              		@ args = 0, pretend = 0, frame = 8
 641              		@ frame_needed = 0, uses_anonymous_args = 0
 642 0000 00B5     		push	{lr}
 643              		.cfi_def_cfa_offset 4
 644              		.cfi_offset 14, -4
 645 0002 074B     		ldr	r3, .L77
 646              		.loc 1 198 0
 647 0004 0749     		ldr	r1, .L77+4
 648              		.loc 1 197 0
 649 0006 1A68     		ldr	r2, [r3]
 650              		.loc 1 199 0
 651 0008 0888     		ldrh	r0, [r1]
 652              		.loc 1 197 0
 653 000a 83B0     		sub	sp, sp, #12
 654              		.cfi_def_cfa_offset 16
 655              		.loc 1 197 0
 656 000c 0192     		str	r2, [sp, #4]
 657              		.loc 1 199 0
 658 000e 019A     		ldr	r2, [sp, #4]
 659 0010 1B68     		ldr	r3, [r3]
 660 0012 9A42     		cmp	r2, r3
 661 0014 02D1     		bne	.L76
 662 0016 03B0     		add	sp, sp, #12
 663              		.cfi_remember_state
 664              		.cfi_def_cfa_offset 4
 665              		@ sp needed
 666 0018 5DF804FB 		ldr	pc, [sp], #4
 667              	.L76:
 668              		.cfi_restore_state
 669 001c FFF7FEFF 		bl	__stack_chk_fail
 670              	.LVL57:
 671              	.L78:
 672              		.align	2
 673              	.L77:
 674 0020 00000000 		.word	__stack_chk_guard
 675 0024 00000000 		.word	.LANCHOR3
 676              		.cfi_endproc
 677              	.LFE264:
 678              		.size	get_line_position, .-get_line_position
 679              		.section	.text.process_image_start,"ax",%progbits
 680              		.align	1
 681              		.p2align 4,,15
 682              		.global	process_image_start
 683              		.syntax unified
 684              		.thumb
ARM GAS  C:\Users\marwa\AppData\Local\Temp\ccn7Mxip.s 			page 13


 685              		.thumb_func
 686              		.fpu fpv4-sp-d16
 687              		.type	process_image_start, %function
 688              	process_image_start:
 689              	.LFB265:
 690              		.loc 1 202 0
 691              		.cfi_startproc
 692              		@ args = 0, pretend = 0, frame = 8
 693              		@ frame_needed = 0, uses_anonymous_args = 0
 694 0000 30B5     		push	{r4, r5, lr}
 695              		.cfi_def_cfa_offset 12
 696              		.cfi_offset 4, -12
 697              		.cfi_offset 5, -8
 698              		.cfi_offset 14, -4
 699 0002 0E4C     		ldr	r4, .L83
 700              		.loc 1 203 0
 701 0004 0E4B     		ldr	r3, .L83+4
 702              		.loc 1 202 0
 703 0006 2268     		ldr	r2, [r4]
 704              		.loc 1 203 0
 705 0008 0E48     		ldr	r0, .L83+8
 706              		.loc 1 202 0
 707 000a 85B0     		sub	sp, sp, #20
 708              		.cfi_def_cfa_offset 32
 709              		.loc 1 203 0
 710 000c 0025     		movs	r5, #0
 711              		.loc 1 202 0
 712 000e 0392     		str	r2, [sp, #12]
 713              		.loc 1 203 0
 714 0010 4FF4AF61 		mov	r1, #1400
 715 0014 4022     		movs	r2, #64
 716 0016 0095     		str	r5, [sp]
 717 0018 FFF7FEFF 		bl	chThdCreateStatic
 718              	.LVL58:
 719              		.loc 1 205 0
 720 001c 0A4B     		ldr	r3, .L83+12
 721 001e 0095     		str	r5, [sp]
 722 0020 4022     		movs	r2, #64
 723 0022 0A48     		ldr	r0, .L83+16
 724 0024 40F67811 		movw	r1, #2424
 725 0028 FFF7FEFF 		bl	chThdCreateStatic
 726              	.LVL59:
 727              		.loc 1 207 0
 728 002c 039A     		ldr	r2, [sp, #12]
 729 002e 2368     		ldr	r3, [r4]
 730 0030 9A42     		cmp	r2, r3
 731 0032 01D1     		bne	.L82
 732 0034 05B0     		add	sp, sp, #20
 733              		.cfi_remember_state
 734              		.cfi_def_cfa_offset 12
 735              		@ sp needed
 736 0036 30BD     		pop	{r4, r5, pc}
 737              	.L82:
 738              		.cfi_restore_state
 739 0038 FFF7FEFF 		bl	__stack_chk_fail
 740              	.LVL60:
 741              	.L84:
ARM GAS  C:\Users\marwa\AppData\Local\Temp\ccn7Mxip.s 			page 14


 742              		.align	2
 743              	.L83:
 744 003c 00000000 		.word	__stack_chk_guard
 745 0040 00000000 		.word	ProcessImage
 746 0044 00000000 		.word	.LANCHOR6
 747 0048 00000000 		.word	CaptureImage
 748 004c 00000000 		.word	.LANCHOR7
 749              		.cfi_endproc
 750              	.LFE265:
 751              		.size	process_image_start, .-process_image_start
 752              		.section	.text.get_config_cam_pid,"ax",%progbits
 753              		.align	1
 754              		.p2align 4,,15
 755              		.global	get_config_cam_pid
 756              		.syntax unified
 757              		.thumb
 758              		.thumb_func
 759              		.fpu fpv4-sp-d16
 760              		.type	get_config_cam_pid, %function
 761              	get_config_cam_pid:
 762              	.LFB266:
 763              		.loc 1 210 0
 764              		.cfi_startproc
 765              		@ args = 0, pretend = 0, frame = 8
 766              		@ frame_needed = 0, uses_anonymous_args = 0
 767 0000 00B5     		push	{lr}
 768              		.cfi_def_cfa_offset 4
 769              		.cfi_offset 14, -4
 770 0002 074B     		ldr	r3, .L89
 771              		.loc 1 211 0
 772 0004 0749     		ldr	r1, .L89+4
 773              		.loc 1 210 0
 774 0006 1A68     		ldr	r2, [r3]
 775              		.loc 1 212 0
 776 0008 0878     		ldrb	r0, [r1]	@ zero_extendqisi2
 777              		.loc 1 210 0
 778 000a 83B0     		sub	sp, sp, #12
 779              		.cfi_def_cfa_offset 16
 780              		.loc 1 210 0
 781 000c 0192     		str	r2, [sp, #4]
 782              		.loc 1 212 0
 783 000e 019A     		ldr	r2, [sp, #4]
 784 0010 1B68     		ldr	r3, [r3]
 785 0012 9A42     		cmp	r2, r3
 786 0014 02D1     		bne	.L88
 787 0016 03B0     		add	sp, sp, #12
 788              		.cfi_remember_state
 789              		.cfi_def_cfa_offset 4
 790              		@ sp needed
 791 0018 5DF804FB 		ldr	pc, [sp], #4
 792              	.L88:
 793              		.cfi_restore_state
 794 001c FFF7FEFF 		bl	__stack_chk_fail
 795              	.LVL61:
 796              	.L90:
 797              		.align	2
 798              	.L89:
ARM GAS  C:\Users\marwa\AppData\Local\Temp\ccn7Mxip.s 			page 15


 799 0020 00000000 		.word	__stack_chk_guard
 800 0024 00000000 		.word	.LANCHOR8
 801              		.cfi_endproc
 802              	.LFE266:
 803              		.size	get_config_cam_pid, .-get_config_cam_pid
 804              		.section	.text.set_config_cam_pid,"ax",%progbits
 805              		.align	1
 806              		.p2align 4,,15
 807              		.global	set_config_cam_pid
 808              		.syntax unified
 809              		.thumb
 810              		.thumb_func
 811              		.fpu fpv4-sp-d16
 812              		.type	set_config_cam_pid, %function
 813              	set_config_cam_pid:
 814              	.LFB267:
 815              		.loc 1 215 0
 816              		.cfi_startproc
 817              		@ args = 0, pretend = 0, frame = 8
 818              		@ frame_needed = 0, uses_anonymous_args = 0
 819              	.LVL62:
 820 0000 00B5     		push	{lr}
 821              		.cfi_def_cfa_offset 4
 822              		.cfi_offset 14, -4
 823 0002 074B     		ldr	r3, .L95
 824              		.loc 1 216 0
 825 0004 0749     		ldr	r1, .L95+4
 826              		.loc 1 215 0
 827 0006 1A68     		ldr	r2, [r3]
 828              		.loc 1 216 0
 829 0008 0870     		strb	r0, [r1]
 830              		.loc 1 215 0
 831 000a 83B0     		sub	sp, sp, #12
 832              		.cfi_def_cfa_offset 16
 833              		.loc 1 215 0
 834 000c 0192     		str	r2, [sp, #4]
 835              		.loc 1 218 0
 836 000e 019A     		ldr	r2, [sp, #4]
 837 0010 1B68     		ldr	r3, [r3]
 838 0012 9A42     		cmp	r2, r3
 839 0014 02D1     		bne	.L94
 840 0016 03B0     		add	sp, sp, #12
 841              		.cfi_remember_state
 842              		.cfi_def_cfa_offset 4
 843              		@ sp needed
 844 0018 5DF804FB 		ldr	pc, [sp], #4
 845              	.L94:
 846              		.cfi_restore_state
 847 001c FFF7FEFF 		bl	__stack_chk_fail
 848              	.LVL63:
 849              	.L96:
 850              		.align	2
 851              	.L95:
 852 0020 00000000 		.word	__stack_chk_guard
 853 0024 00000000 		.word	.LANCHOR8
 854              		.cfi_endproc
 855              	.LFE267:
ARM GAS  C:\Users\marwa\AppData\Local\Temp\ccn7Mxip.s 			page 16


 856              		.size	set_config_cam_pid, .-set_config_cam_pid
 857              		.global	config_cam_pid
 858              		.section	.bss.config_cam_pid,"aw",%nobits
 859              		.set	.LANCHOR8,. + 0
 860              		.type	config_cam_pid, %object
 861              		.size	config_cam_pid, 1
 862              	config_cam_pid:
 863 0000 00       		.space	1
 864              		.section	.bss.distance_cm,"aw",%nobits
 865              		.align	2
 866              		.set	.LANCHOR5,. + 0
 867              		.type	distance_cm, %object
 868              		.size	distance_cm, 4
 869              	distance_cm:
 870 0000 00000000 		.space	4
 871              		.section	.bss.waCaptureImage,"aw",%nobits
 872              		.align	3
 873              		.set	.LANCHOR7,. + 0
 874              		.type	waCaptureImage, %object
 875              		.size	waCaptureImage, 2424
 876              	waCaptureImage:
 877 0000 00000000 		.space	2424
 877      00000000 
 877      00000000 
 877      00000000 
 877      00000000 
 878              		.section	.bss.waProcessImage,"aw",%nobits
 879              		.align	3
 880              		.set	.LANCHOR6,. + 0
 881              		.type	waProcessImage, %object
 882              		.size	waProcessImage, 1400
 883              	waProcessImage:
 884 0000 00000000 		.space	1400
 884      00000000 
 884      00000000 
 884      00000000 
 884      00000000 
 885              		.section	.data.image_ready_sem,"aw",%progbits
 886              		.align	2
 887              		.set	.LANCHOR1,. + 0
 888              		.type	image_ready_sem, %object
 889              		.size	image_ready_sem, 12
 890              	image_ready_sem:
 891 0000 00000000 		.word	image_ready_sem
 892 0004 00000000 		.word	image_ready_sem
 893 0008 00000000 		.word	0
 894              		.section	.data.line_position,"aw",%progbits
 895              		.align	1
 896              		.set	.LANCHOR3,. + 0
 897              		.type	line_position, %object
 898              		.size	line_position, 2
 899              	line_position:
 900 0000 5000     		.short	80
 901              		.section	.rodata.__FUNCTION__.12193,"a",%progbits
 902              		.align	2
 903              		.set	.LANCHOR0,. + 0
 904              		.type	__FUNCTION__.12193, %object
ARM GAS  C:\Users\marwa\AppData\Local\Temp\ccn7Mxip.s 			page 17


 905              		.size	__FUNCTION__.12193, 13
 906              	__FUNCTION__.12193:
 907 0000 43617074 		.ascii	"CaptureImage\000"
 907      75726549 
 907      6D616765 
 907      00
 908              		.section	.rodata.__FUNCTION__.12199,"a",%progbits
 909              		.align	2
 910              		.set	.LANCHOR4,. + 0
 911              		.type	__FUNCTION__.12199, %object
 912              		.size	__FUNCTION__.12199, 13
 913              	__FUNCTION__.12199:
 914 0000 50726F63 		.ascii	"ProcessImage\000"
 914      65737349 
 914      6D616765 
 914      00
 915              		.section	.rodata.__func__.7153,"a",%progbits
 916              		.align	2
 917              		.set	.LANCHOR2,. + 0
 918              		.type	__func__.7153, %object
 919              		.size	__func__.7153, 12
 920              	__func__.7153:
 921 0000 63685379 		.ascii	"chSysUnlock\000"
 921      73556E6C 
 921      6F636B00 
 922              		.text
 923              	.Letext0:
 924              		.file 6 "c:\\users\\marwa\\onedrive\\documents\\ide_robots\\epuck2_utils\\arm_gcc_toolchain\\lib\\
 925              		.file 7 "c:\\users\\marwa\\onedrive\\documents\\ide_robots\\epuck2_utils\\arm_gcc_toolchain\\arm-n
 926              		.file 8 "c:\\users\\marwa\\onedrive\\documents\\ide_robots\\epuck2_utils\\arm_gcc_toolchain\\arm-n
 927              		.file 9 ".//ChibiOS//os/rt/ports/ARMCMx/compilers/GCC/chtypes.h"
 928              		.file 10 ".//ChibiOS//os/rt/include/chsystypes.h"
 929              		.file 11 ".//ChibiOS//os/rt/include/chschd.h"
 930              		.file 12 ".//ChibiOS//os/ext/CMSIS/include/core_cm4.h"
 931              		.file 13 ".//ChibiOS//os/ext/CMSIS/ST/system_stm32f4xx.h"
 932              		.file 14 ".//ChibiOS//os/ext/CMSIS/ST/stm32f407xx.h"
 933              		.file 15 ".//ChibiOS//os/rt/ports/ARMCMx/chcore.h"
 934              		.file 16 ".//ChibiOS//os/rt/ports/ARMCMx/chcore_v7m.h"
 935              		.file 17 ".//ChibiOS//os/rt/include/chdebug.h"
 936              		.file 18 ".//ChibiOS//os/rt/include/chtm.h"
 937              		.file 19 ".//ChibiOS//os/rt/include/chstats.h"
 938              		.file 20 ".//ChibiOS//os/rt/include/chsem.h"
 939              		.file 21 ".//ChibiOS//os/rt/include/chmtx.h"
 940              		.file 22 ".//ChibiOS//os/rt/include/chevents.h"
 941              		.file 23 ".//ChibiOS//os/rt/include/chqueues.h"
 942              		.file 24 ".//ChibiOS//os/hal/ports/STM32/STM32F4xx/stm32_dma.h"
 943              		.file 25 ".//ChibiOS//os/hal/include/hal_ioblock.h"
 944              		.file 26 ".//ChibiOS//os/hal/ports/STM32/LLD/GPIOv2/pal_lld.h"
 945              		.file 27 ".//ChibiOS//os/hal/include/adc.h"
 946              		.file 28 ".//ChibiOS//os/hal/ports/STM32/STM32F4xx/adc_lld.h"
 947              		.file 29 ".//ChibiOS//os/hal/include/can.h"
 948              		.file 30 ".//ChibiOS//os/hal/ports/STM32/LLD/can_lld.h"
 949              		.file 31 ".//ChibiOS//os/hal/include/dac.h"
 950              		.file 32 ".//ChibiOS//os/hal/ports/STM32/LLD/DACv1/dac_lld.h"
 951              		.file 33 ".//ChibiOS//os/hal/include/ext.h"
 952              		.file 34 ".//ChibiOS//os/hal/ports/STM32/LLD/ext_lld.h"
 953              		.file 35 ".//ChibiOS//os/hal/include/gpt.h"
ARM GAS  C:\Users\marwa\AppData\Local\Temp\ccn7Mxip.s 			page 18


 954              		.file 36 ".//ChibiOS//os/hal/ports/STM32/LLD/TIMv1/gpt_lld.h"
 955              		.file 37 ".//ChibiOS//os/hal/ports/STM32/LLD/TIMv1/stm32_tim.h"
 956              		.file 38 ".//ChibiOS//os/hal/include/i2c.h"
 957              		.file 39 ".//ChibiOS//os/hal/ports/STM32/LLD/I2Cv1/i2c_lld.h"
 958              		.file 40 ".//ChibiOS//os/hal/include/i2s.h"
 959              		.file 41 ".//ChibiOS//os/hal/ports/STM32/LLD/SPIv1/i2s_lld.h"
 960              		.file 42 ".//ChibiOS//os/hal/include/pwm.h"
 961              		.file 43 ".//ChibiOS//os/hal/ports/STM32/LLD/TIMv1/pwm_lld.h"
 962              		.file 44 ".//ChibiOS//os/hal/include/serial.h"
 963              		.file 45 ".//ChibiOS//os/hal/ports/STM32/LLD/USARTv1/serial_lld.h"
 964              		.file 46 ".//ChibiOS//os/hal/include/sdc.h"
 965              		.file 47 ".//ChibiOS//os/hal/ports/STM32/LLD/sdc_lld.h"
 966              		.file 48 ".//ChibiOS//os/hal/include/spi.h"
 967              		.file 49 ".//ChibiOS//os/hal/ports/STM32/LLD/SPIv1/spi_lld.h"
 968              		.file 50 ".//ChibiOS//os/hal/include/usb.h"
 969              		.file 51 ".//ChibiOS//os/hal/ports/STM32/LLD/OTGv1/usb_lld.h"
 970              		.file 52 ".//ChibiOS//os/hal/ports/STM32/LLD/OTGv1/stm32_otg.h"
 971              		.file 53 ".//ChibiOS//os/hal/include/serial_usb.h"
 972              		.file 54 ".//src/usbcfg.h"
 973              		.file 55 "c:\\users\\marwa\\onedrive\\documents\\ide_robots\\epuck2_utils\\arm_gcc_toolchain\\arm-
 974              		.file 56 "c:\\users\\marwa\\onedrive\\documents\\ide_robots\\epuck2_utils\\arm_gcc_toolchain\\arm-
 975              		.file 57 "c:\\users\\marwa\\onedrive\\documents\\ide_robots\\epuck2_utils\\arm_gcc_toolchain\\arm-
 976              		.file 58 ".//ChibiOS_ext/os/hal/include/../ports/STM32/STM32F4xx/dcmi_lld.h"
 977              		.file 59 "c:\\users\\marwa\\onedrive\\documents\\ide_robots\\epuck2_utils\\arm_gcc_toolchain\\arm-
 978              		.file 60 ".//src/msgbus/messagebus.h"
 979              		.file 61 "c:\\users\\marwa\\onedrive\\documents\\ide_robots\\epuck2_utils\\arm_gcc_toolchain\\arm-
 980              		.file 62 ".//src/parameter/parameter.h"
 981              		.file 63 ".//src/main.h"
 982              		.file 64 ".//ChibiOS//os/rt/include/chthreads.h"
 983              		.file 65 ".//src/camera/dcmi_camera.h"
 984              		.file 66 ".//src/pi_regulator.h"
 985              		.file 67 ".//src/ir_sensors.h"
 986              		.file 68 "<built-in>"